
init_test_1:     file format elf64-littleriscv


Disassembly of section .text:

00000000000100b0 <_start>:
   100b0:	0000e197          	auipc	gp,0xe
   100b4:	bc818193          	addi	gp,gp,-1080 # 1dc78 <__global_pointer$>
   100b8:	84818513          	addi	a0,gp,-1976 # 1d4c0 <_edata>
   100bc:	8f818613          	addi	a2,gp,-1800 # 1d570 <_end>
   100c0:	8e09                	sub	a2,a2,a0
   100c2:	4581                	li	a1,0
   100c4:	3cf000ef          	jal	ra,10c92 <memset>
   100c8:	00000517          	auipc	a0,0x0
   100cc:	61250513          	addi	a0,a0,1554 # 106da <__libc_fini_array>
   100d0:	00000097          	auipc	ra,0x0
   100d4:	5d8080e7          	jalr	1496(ra) # 106a8 <atexit>
   100d8:	00000097          	auipc	ra,0x0
   100dc:	650080e7          	jalr	1616(ra) # 10728 <__libc_init_array>
   100e0:	4502                	lw	a0,0(sp)
   100e2:	002c                	addi	a1,sp,8
   100e4:	4601                	li	a2,0
   100e6:	00000097          	auipc	ra,0x0
   100ea:	0c4080e7          	jalr	196(ra) # 101aa <main>
   100ee:	00000317          	auipc	t1,0x0
   100f2:	5c830067          	jr	1480(t1) # 106b6 <exit>

00000000000100f6 <_fini>:
   100f6:	8082                	ret

00000000000100f8 <deregister_tm_clones>:
   100f8:	6575                	lui	a0,0x1d
   100fa:	67f5                	lui	a5,0x1d
   100fc:	47850713          	addi	a4,a0,1144 # 1d478 <__TMC_END__>
   10100:	47878793          	addi	a5,a5,1144 # 1d478 <__TMC_END__>
   10104:	00e78b63          	beq	a5,a4,1011a <deregister_tm_clones+0x22>
   10108:	00000337          	lui	t1,0x0
   1010c:	00030313          	mv	t1,t1
   10110:	00030563          	beqz	t1,1011a <deregister_tm_clones+0x22>
   10114:	47850513          	addi	a0,a0,1144
   10118:	8302                	jr	t1
   1011a:	8082                	ret

000000000001011c <register_tm_clones>:
   1011c:	67f5                	lui	a5,0x1d
   1011e:	6575                	lui	a0,0x1d
   10120:	47878593          	addi	a1,a5,1144 # 1d478 <__TMC_END__>
   10124:	47850793          	addi	a5,a0,1144 # 1d478 <__TMC_END__>
   10128:	8d9d                	sub	a1,a1,a5
   1012a:	858d                	srai	a1,a1,0x3
   1012c:	4789                	li	a5,2
   1012e:	02f5c5b3          	div	a1,a1,a5
   10132:	c991                	beqz	a1,10146 <register_tm_clones+0x2a>
   10134:	00000337          	lui	t1,0x0
   10138:	00030313          	mv	t1,t1
   1013c:	00030563          	beqz	t1,10146 <register_tm_clones+0x2a>
   10140:	47850513          	addi	a0,a0,1144
   10144:	8302                	jr	t1
   10146:	8082                	ret

0000000000010148 <__do_global_dtors_aux>:
   10148:	8701c703          	lbu	a4,-1936(gp) # 1d4e8 <completed.5184>
   1014c:	eb15                	bnez	a4,10180 <__do_global_dtors_aux+0x38>
   1014e:	1141                	addi	sp,sp,-16
   10150:	e022                	sd	s0,0(sp)
   10152:	e406                	sd	ra,8(sp)
   10154:	843e                	mv	s0,a5
   10156:	fa3ff0ef          	jal	ra,100f8 <deregister_tm_clones>
   1015a:	000007b7          	lui	a5,0x0
   1015e:	00078793          	mv	a5,a5
   10162:	cb81                	beqz	a5,10172 <__do_global_dtors_aux+0x2a>
   10164:	656d                	lui	a0,0x1b
   10166:	35050513          	addi	a0,a0,848 # 1b350 <__EH_FRAME_BEGIN__>
   1016a:	ffff0097          	auipc	ra,0xffff0
   1016e:	e96080e7          	jalr	-362(ra) # 0 <_start-0x100b0>
   10172:	4785                	li	a5,1
   10174:	86f18823          	sb	a5,-1936(gp) # 1d4e8 <completed.5184>
   10178:	60a2                	ld	ra,8(sp)
   1017a:	6402                	ld	s0,0(sp)
   1017c:	0141                	addi	sp,sp,16
   1017e:	8082                	ret
   10180:	8082                	ret

0000000000010182 <frame_dummy>:
   10182:	000007b7          	lui	a5,0x0
   10186:	00078793          	mv	a5,a5
   1018a:	cf91                	beqz	a5,101a6 <frame_dummy+0x24>
   1018c:	656d                	lui	a0,0x1b
   1018e:	1141                	addi	sp,sp,-16
   10190:	87818593          	addi	a1,gp,-1928 # 1d4f0 <object.5189>
   10194:	35050513          	addi	a0,a0,848 # 1b350 <__EH_FRAME_BEGIN__>
   10198:	e406                	sd	ra,8(sp)
   1019a:	ffff0097          	auipc	ra,0xffff0
   1019e:	e66080e7          	jalr	-410(ra) # 0 <_start-0x100b0>
   101a2:	60a2                	ld	ra,8(sp)
   101a4:	0141                	addi	sp,sp,16
   101a6:	f77ff06f          	j	1011c <register_tm_clones>

00000000000101aa <main>:
   101aa:	7179                	addi	sp,sp,-48
   101ac:	f406                	sd	ra,40(sp)
   101ae:	f022                	sd	s0,32(sp)
   101b0:	1800                	addi	s0,sp,48
   101b2:	87aa                	mv	a5,a0
   101b4:	fcb43823          	sd	a1,-48(s0)
   101b8:	fcf42e23          	sw	a5,-36(s0)
   101bc:	fe042623          	sw	zero,-20(s0)
   101c0:	67e9                	lui	a5,0x1a
   101c2:	5b078513          	addi	a0,a5,1456 # 1a5b0 <__clzdi2+0x38>
   101c6:	00001097          	auipc	ra,0x1
   101ca:	c44080e7          	jalr	-956(ra) # 10e0a <puts>
   101ce:	03e000ef          	jal	ra,1020c <xbrtime_init>
   101d2:	87aa                	mv	a5,a0
   101d4:	fef42623          	sw	a5,-20(s0)
   101d8:	67e9                	lui	a5,0x1a
   101da:	5d078513          	addi	a0,a5,1488 # 1a5d0 <__clzdi2+0x58>
   101de:	00001097          	auipc	ra,0x1
   101e2:	c2c080e7          	jalr	-980(ra) # 10e0a <puts>
   101e6:	00000097          	auipc	ra,0x0
   101ea:	270080e7          	jalr	624(ra) # 10456 <xbrtime_close>
   101ee:	67e9                	lui	a5,0x1a
   101f0:	5f878513          	addi	a0,a5,1528 # 1a5f8 <__clzdi2+0x80>
   101f4:	00001097          	auipc	ra,0x1
   101f8:	c16080e7          	jalr	-1002(ra) # 10e0a <puts>
   101fc:	fec42783          	lw	a5,-20(s0)
   10200:	853e                	mv	a0,a5
   10202:	70a2                	ld	ra,40(sp)
   10204:	7402                	ld	s0,32(sp)
   10206:	6145                	addi	sp,sp,48
   10208:	8082                	ret
	...

000000000001020c <xbrtime_init>:
   1020c:	7179                	addi	sp,sp,-48
   1020e:	f406                	sd	ra,40(sp)
   10210:	f022                	sd	s0,32(sp)
   10212:	ec26                	sd	s1,24(sp)
   10214:	1800                	addi	s0,sp,48
   10216:	fc042e23          	sw	zero,-36(s0)
   1021a:	8e01b023          	sd	zero,-1824(gp) # 1d558 <__XBRTIME_CONFIG>
   1021e:	03800513          	li	a0,56
   10222:	56e000ef          	jal	ra,10790 <malloc>
   10226:	87aa                	mv	a5,a0
   10228:	873e                	mv	a4,a5
   1022a:	8ee1b023          	sd	a4,-1824(gp) # 1d558 <__XBRTIME_CONFIG>
   1022e:	8e01b783          	ld	a5,-1824(gp) # 1d558 <__XBRTIME_CONFIG>
   10232:	e399                	bnez	a5,10238 <xbrtime_init+0x2c>
   10234:	57fd                	li	a5,-1
   10236:	aae1                	j	1040e <xbrtime_init+0x202>
   10238:	8e01b483          	ld	s1,-1824(gp) # 1d558 <__XBRTIME_CONFIG>
   1023c:	6521                	lui	a0,0x8
   1023e:	552000ef          	jal	ra,10790 <malloc>
   10242:	87aa                	mv	a5,a0
   10244:	f49c                	sd	a5,40(s1)
   10246:	8e01b483          	ld	s1,-1824(gp) # 1d558 <__XBRTIME_CONFIG>
   1024a:	3ec000ef          	jal	ra,10636 <__xbrtime_asm_get_id>
   1024e:	87aa                	mv	a5,a0
   10250:	c49c                	sw	a5,8(s1)
   10252:	8e01b483          	ld	s1,-1824(gp) # 1d558 <__XBRTIME_CONFIG>
   10256:	3ec000ef          	jal	ra,10642 <__xbrtime_asm_get_memsize>
   1025a:	87aa                	mv	a5,a0
   1025c:	e09c                	sd	a5,0(s1)
   1025e:	8e01b483          	ld	s1,-1824(gp) # 1d558 <__XBRTIME_CONFIG>
   10262:	3da000ef          	jal	ra,1063c <__xbrtime_asm_get_npes>
   10266:	87aa                	mv	a5,a0
   10268:	c4dc                	sw	a5,12(s1)
   1026a:	8e01b483          	ld	s1,-1824(gp) # 1d558 <__XBRTIME_CONFIG>
   1026e:	3da000ef          	jal	ra,10648 <__xbrtime_asm_get_startaddr>
   10272:	87aa                	mv	a5,a0
   10274:	e89c                	sd	a5,16(s1)
   10276:	8e01b783          	ld	a5,-1824(gp) # 1d558 <__XBRTIME_CONFIG>
   1027a:	4705                	li	a4,1
   1027c:	ef98                	sd	a4,24(a5)
   1027e:	8e01b783          	ld	a5,-1824(gp) # 1d558 <__XBRTIME_CONFIG>
   10282:	8e81b703          	ld	a4,-1816(gp) # 1d560 <barrier>
   10286:	f398                	sd	a4,32(a5)
   10288:	fc042e23          	sw	zero,-36(s0)
   1028c:	a82d                	j	102c6 <xbrtime_init+0xba>
   1028e:	8e01b783          	ld	a5,-1824(gp) # 1d558 <__XBRTIME_CONFIG>
   10292:	7398                	ld	a4,32(a5)
   10294:	fdc42783          	lw	a5,-36(s0)
   10298:	078e                	slli	a5,a5,0x3
   1029a:	97ba                	add	a5,a5,a4
   1029c:	577d                	li	a4,-1
   1029e:	8371                	srli	a4,a4,0x1c
   102a0:	e398                	sd	a4,0(a5)
   102a2:	8e01b783          	ld	a5,-1824(gp) # 1d558 <__XBRTIME_CONFIG>
   102a6:	7398                	ld	a4,32(a5)
   102a8:	fdc42783          	lw	a5,-36(s0)
   102ac:	27a9                	addiw	a5,a5,10
   102ae:	2781                	sext.w	a5,a5
   102b0:	078e                	slli	a5,a5,0x3
   102b2:	97ba                	add	a5,a5,a4
   102b4:	6769                	lui	a4,0x1a
   102b6:	64873703          	ld	a4,1608(a4) # 1a648 <__clzdi2+0xd0>
   102ba:	e398                	sd	a4,0(a5)
   102bc:	fdc42783          	lw	a5,-36(s0)
   102c0:	2785                	addiw	a5,a5,1
   102c2:	fcf42e23          	sw	a5,-36(s0)
   102c6:	fdc42783          	lw	a5,-36(s0)
   102ca:	0007871b          	sext.w	a4,a5
   102ce:	47a5                	li	a5,9
   102d0:	fae7dfe3          	ble	a4,a5,1028e <xbrtime_init+0x82>
   102d4:	8e01b783          	ld	a5,-1824(gp) # 1d558 <__XBRTIME_CONFIG>
   102d8:	4798                	lw	a4,8(a5)
   102da:	8e01b783          	ld	a5,-1824(gp) # 1d558 <__XBRTIME_CONFIG>
   102de:	739c                	ld	a5,32(a5)
   102e0:	639c                	ld	a5,0(a5)
   102e2:	863e                	mv	a2,a5
   102e4:	85ba                	mv	a1,a4
   102e6:	67e9                	lui	a5,0x1a
   102e8:	60878513          	addi	a0,a5,1544 # 1a608 <__clzdi2+0x90>
   102ec:	00001097          	auipc	ra,0x1
   102f0:	a76080e7          	jalr	-1418(ra) # 10d62 <printf>
   102f4:	8e01b783          	ld	a5,-1824(gp) # 1d558 <__XBRTIME_CONFIG>
   102f8:	4798                	lw	a4,8(a5)
   102fa:	8e01b783          	ld	a5,-1824(gp) # 1d558 <__XBRTIME_CONFIG>
   102fe:	739c                	ld	a5,32(a5)
   10300:	07a1                	addi	a5,a5,8
   10302:	639c                	ld	a5,0(a5)
   10304:	863e                	mv	a2,a5
   10306:	85ba                	mv	a1,a4
   10308:	67e9                	lui	a5,0x1a
   1030a:	62878513          	addi	a0,a5,1576 # 1a628 <__clzdi2+0xb0>
   1030e:	00001097          	auipc	ra,0x1
   10312:	a54080e7          	jalr	-1452(ra) # 10d62 <printf>
   10316:	8e01b783          	ld	a5,-1824(gp) # 1d558 <__XBRTIME_CONFIG>
   1031a:	47dc                	lw	a5,12(a5)
   1031c:	873e                	mv	a4,a5
   1031e:	40000793          	li	a5,1024
   10322:	00e7db63          	ble	a4,a5,10338 <xbrtime_init+0x12c>
   10326:	8e01b783          	ld	a5,-1824(gp) # 1d558 <__XBRTIME_CONFIG>
   1032a:	853e                	mv	a0,a5
   1032c:	00000097          	auipc	ra,0x0
   10330:	46e080e7          	jalr	1134(ra) # 1079a <free>
   10334:	57fd                	li	a5,-1
   10336:	a8e1                	j	1040e <xbrtime_init+0x202>
   10338:	8e01b783          	ld	a5,-1824(gp) # 1d558 <__XBRTIME_CONFIG>
   1033c:	47dc                	lw	a5,12(a5)
   1033e:	00479713          	slli	a4,a5,0x4
   10342:	8e01b483          	ld	s1,-1824(gp) # 1d558 <__XBRTIME_CONFIG>
   10346:	853a                	mv	a0,a4
   10348:	448000ef          	jal	ra,10790 <malloc>
   1034c:	87aa                	mv	a5,a0
   1034e:	f89c                	sd	a5,48(s1)
   10350:	8e01b783          	ld	a5,-1824(gp) # 1d558 <__XBRTIME_CONFIG>
   10354:	7b9c                	ld	a5,48(a5)
   10356:	eb91                	bnez	a5,1036a <xbrtime_init+0x15e>
   10358:	8e01b783          	ld	a5,-1824(gp) # 1d558 <__XBRTIME_CONFIG>
   1035c:	853e                	mv	a0,a5
   1035e:	00000097          	auipc	ra,0x0
   10362:	43c080e7          	jalr	1084(ra) # 1079a <free>
   10366:	57fd                	li	a5,-1
   10368:	a05d                	j	1040e <xbrtime_init+0x202>
   1036a:	fc042e23          	sw	zero,-36(s0)
   1036e:	a805                	j	1039e <xbrtime_init+0x192>
   10370:	8e01b783          	ld	a5,-1824(gp) # 1d558 <__XBRTIME_CONFIG>
   10374:	7798                	ld	a4,40(a5)
   10376:	fdc42783          	lw	a5,-36(s0)
   1037a:	0792                	slli	a5,a5,0x4
   1037c:	97ba                	add	a5,a5,a4
   1037e:	0007b023          	sd	zero,0(a5)
   10382:	8e01b783          	ld	a5,-1824(gp) # 1d558 <__XBRTIME_CONFIG>
   10386:	7798                	ld	a4,40(a5)
   10388:	fdc42783          	lw	a5,-36(s0)
   1038c:	0792                	slli	a5,a5,0x4
   1038e:	97ba                	add	a5,a5,a4
   10390:	0007b423          	sd	zero,8(a5)
   10394:	fdc42783          	lw	a5,-36(s0)
   10398:	2785                	addiw	a5,a5,1
   1039a:	fcf42e23          	sw	a5,-36(s0)
   1039e:	fdc42783          	lw	a5,-36(s0)
   103a2:	0007871b          	sext.w	a4,a5
   103a6:	7ff00793          	li	a5,2047
   103aa:	fce7d3e3          	ble	a4,a5,10370 <xbrtime_init+0x164>
   103ae:	fc042e23          	sw	zero,-36(s0)
   103b2:	a825                	j	103ea <xbrtime_init+0x1de>
   103b4:	8e01b783          	ld	a5,-1824(gp) # 1d558 <__XBRTIME_CONFIG>
   103b8:	7b98                	ld	a4,48(a5)
   103ba:	fdc42783          	lw	a5,-36(s0)
   103be:	0792                	slli	a5,a5,0x4
   103c0:	97ba                	add	a5,a5,a4
   103c2:	fdc42703          	lw	a4,-36(s0)
   103c6:	c398                	sw	a4,0(a5)
   103c8:	8e01b783          	ld	a5,-1824(gp) # 1d558 <__XBRTIME_CONFIG>
   103cc:	7b98                	ld	a4,48(a5)
   103ce:	fdc42783          	lw	a5,-36(s0)
   103d2:	0792                	slli	a5,a5,0x4
   103d4:	97ba                	add	a5,a5,a4
   103d6:	fdc42703          	lw	a4,-36(s0)
   103da:	2705                	addiw	a4,a4,1
   103dc:	2701                	sext.w	a4,a4
   103de:	c3d8                	sw	a4,4(a5)
   103e0:	fdc42783          	lw	a5,-36(s0)
   103e4:	2785                	addiw	a5,a5,1
   103e6:	fcf42e23          	sw	a5,-36(s0)
   103ea:	8e01b783          	ld	a5,-1824(gp) # 1d558 <__XBRTIME_CONFIG>
   103ee:	47d8                	lw	a4,12(a5)
   103f0:	fdc42783          	lw	a5,-36(s0)
   103f4:	2781                	sext.w	a5,a5
   103f6:	fae7cfe3          	blt	a5,a4,103b4 <xbrtime_init+0x1a8>
   103fa:	4785                	li	a5,1
   103fc:	fcf42c23          	sw	a5,-40(s0)
   10400:	fbb00793          	li	a5,-69
   10404:	17e2                	slli	a5,a5,0x38
   10406:	fd842703          	lw	a4,-40(s0)
   1040a:	e398                	sd	a4,0(a5)
   1040c:	4781                	li	a5,0
   1040e:	853e                	mv	a0,a5
   10410:	70a2                	ld	ra,40(sp)
   10412:	7402                	ld	s0,32(sp)
   10414:	64e2                	ld	s1,24(sp)
   10416:	6145                	addi	sp,sp,48
   10418:	8082                	ret

000000000001041a <xbrtime_mype>:
   1041a:	1141                	addi	sp,sp,-16
   1041c:	e422                	sd	s0,8(sp)
   1041e:	0800                	addi	s0,sp,16
   10420:	8e01b783          	ld	a5,-1824(gp) # 1d558 <__XBRTIME_CONFIG>
   10424:	e399                	bnez	a5,1042a <xbrtime_mype+0x10>
   10426:	57fd                	li	a5,-1
   10428:	a021                	j	10430 <xbrtime_mype+0x16>
   1042a:	8e01b783          	ld	a5,-1824(gp) # 1d558 <__XBRTIME_CONFIG>
   1042e:	479c                	lw	a5,8(a5)
   10430:	853e                	mv	a0,a5
   10432:	6422                	ld	s0,8(sp)
   10434:	0141                	addi	sp,sp,16
   10436:	8082                	ret

0000000000010438 <xbrtime_num_pes>:
   10438:	1141                	addi	sp,sp,-16
   1043a:	e422                	sd	s0,8(sp)
   1043c:	0800                	addi	s0,sp,16
   1043e:	8e01b783          	ld	a5,-1824(gp) # 1d558 <__XBRTIME_CONFIG>
   10442:	e399                	bnez	a5,10448 <xbrtime_num_pes+0x10>
   10444:	57fd                	li	a5,-1
   10446:	a021                	j	1044e <xbrtime_num_pes+0x16>
   10448:	8e01b783          	ld	a5,-1824(gp) # 1d558 <__XBRTIME_CONFIG>
   1044c:	47dc                	lw	a5,12(a5)
   1044e:	853e                	mv	a0,a5
   10450:	6422                	ld	s0,8(sp)
   10452:	0141                	addi	sp,sp,16
   10454:	8082                	ret

0000000000010456 <xbrtime_close>:
   10456:	1101                	addi	sp,sp,-32
   10458:	ec06                	sd	ra,24(sp)
   1045a:	e822                	sd	s0,16(sp)
   1045c:	1000                	addi	s0,sp,32
   1045e:	fe042623          	sw	zero,-20(s0)
   10462:	8e01b783          	ld	a5,-1824(gp) # 1d558 <__XBRTIME_CONFIG>
   10466:	cba9                	beqz	a5,104b8 <xbrtime_close+0x62>
   10468:	00000097          	auipc	ra,0x0
   1046c:	1e6080e7          	jalr	486(ra) # 1064e <__xbrtime_asm_fence>
   10470:	fe042623          	sw	zero,-20(s0)
   10474:	a815                	j	104a8 <xbrtime_close+0x52>
   10476:	8e01b783          	ld	a5,-1824(gp) # 1d558 <__XBRTIME_CONFIG>
   1047a:	7798                	ld	a4,40(a5)
   1047c:	fec42783          	lw	a5,-20(s0)
   10480:	0792                	slli	a5,a5,0x4
   10482:	97ba                	add	a5,a5,a4
   10484:	679c                	ld	a5,8(a5)
   10486:	cf81                	beqz	a5,1049e <xbrtime_close+0x48>
   10488:	8e01b783          	ld	a5,-1824(gp) # 1d558 <__XBRTIME_CONFIG>
   1048c:	7798                	ld	a4,40(a5)
   1048e:	fec42783          	lw	a5,-20(s0)
   10492:	0792                	slli	a5,a5,0x4
   10494:	97ba                	add	a5,a5,a4
   10496:	639c                	ld	a5,0(a5)
   10498:	853e                	mv	a0,a5
   1049a:	154000ef          	jal	ra,105ee <xbrtime_free>
   1049e:	fec42783          	lw	a5,-20(s0)
   104a2:	2785                	addiw	a5,a5,1
   104a4:	fef42623          	sw	a5,-20(s0)
   104a8:	fec42783          	lw	a5,-20(s0)
   104ac:	0007871b          	sext.w	a4,a5
   104b0:	7ff00793          	li	a5,2047
   104b4:	fce7d1e3          	ble	a4,a5,10476 <xbrtime_close+0x20>
   104b8:	8e01b783          	ld	a5,-1824(gp) # 1d558 <__XBRTIME_CONFIG>
   104bc:	7b9c                	ld	a5,48(a5)
   104be:	cb99                	beqz	a5,104d4 <xbrtime_close+0x7e>
   104c0:	8e01b783          	ld	a5,-1824(gp) # 1d558 <__XBRTIME_CONFIG>
   104c4:	7b9c                	ld	a5,48(a5)
   104c6:	853e                	mv	a0,a5
   104c8:	2d2000ef          	jal	ra,1079a <free>
   104cc:	8e01b783          	ld	a5,-1824(gp) # 1d558 <__XBRTIME_CONFIG>
   104d0:	0207b823          	sd	zero,48(a5)
   104d4:	8e01b783          	ld	a5,-1824(gp) # 1d558 <__XBRTIME_CONFIG>
   104d8:	853e                	mv	a0,a5
   104da:	2c0000ef          	jal	ra,1079a <free>
   104de:	0001                	nop
   104e0:	60e2                	ld	ra,24(sp)
   104e2:	6442                	ld	s0,16(sp)
   104e4:	6105                	addi	sp,sp,32
   104e6:	8082                	ret

00000000000104e8 <__xbrtime_ctor>:
   104e8:	1141                	addi	sp,sp,-16
   104ea:	e406                	sd	ra,8(sp)
   104ec:	e022                	sd	s0,0(sp)
   104ee:	0800                	addi	s0,sp,16
   104f0:	16c000ef          	jal	ra,1065c <__xbrtime_ctor_reg_reset>
   104f4:	0a000513          	li	a0,160
   104f8:	298000ef          	jal	ra,10790 <malloc>
   104fc:	87aa                	mv	a5,a0
   104fe:	873e                	mv	a4,a5
   10500:	8ee1b423          	sd	a4,-1816(gp) # 1d560 <barrier>
   10504:	0001                	nop
   10506:	60a2                	ld	ra,8(sp)
   10508:	6402                	ld	s0,0(sp)
   1050a:	0141                	addi	sp,sp,16
   1050c:	8082                	ret

000000000001050e <__xbrtime_dtor>:
   1050e:	1101                	addi	sp,sp,-32
   10510:	ec06                	sd	ra,24(sp)
   10512:	e822                	sd	s0,16(sp)
   10514:	1000                	addi	s0,sp,32
   10516:	fe043423          	sd	zero,-24(s0)
   1051a:	fd500793          	li	a5,-43
   1051e:	17e6                	slli	a5,a5,0x39
   10520:	fe843703          	ld	a4,-24(s0)
   10524:	e398                	sd	a4,0(a5)
   10526:	8e81b783          	ld	a5,-1816(gp) # 1d560 <barrier>
   1052a:	853e                	mv	a0,a5
   1052c:	26e000ef          	jal	ra,1079a <free>
   10530:	0001                	nop
   10532:	60e2                	ld	ra,24(sp)
   10534:	6442                	ld	s0,16(sp)
   10536:	6105                	addi	sp,sp,32
   10538:	8082                	ret

000000000001053a <__xbrtime_shared_free>:
   1053a:	7179                	addi	sp,sp,-48
   1053c:	f406                	sd	ra,40(sp)
   1053e:	f022                	sd	s0,32(sp)
   10540:	1800                	addi	s0,sp,48
   10542:	fca43c23          	sd	a0,-40(s0)
   10546:	fd843783          	ld	a5,-40(s0)
   1054a:	fef43023          	sd	a5,-32(s0)
   1054e:	fe042623          	sw	zero,-20(s0)
   10552:	fe042623          	sw	zero,-20(s0)
   10556:	a041                	j	105d6 <__xbrtime_shared_free+0x9c>
   10558:	8e01b783          	ld	a5,-1824(gp) # 1d558 <__XBRTIME_CONFIG>
   1055c:	7798                	ld	a4,40(a5)
   1055e:	fec42783          	lw	a5,-20(s0)
   10562:	0792                	slli	a5,a5,0x4
   10564:	97ba                	add	a5,a5,a4
   10566:	639c                	ld	a5,0(a5)
   10568:	fe043703          	ld	a4,-32(s0)
   1056c:	06f76063          	bltu	a4,a5,105cc <__xbrtime_shared_free+0x92>
   10570:	8e01b783          	ld	a5,-1824(gp) # 1d558 <__XBRTIME_CONFIG>
   10574:	7798                	ld	a4,40(a5)
   10576:	fec42783          	lw	a5,-20(s0)
   1057a:	0792                	slli	a5,a5,0x4
   1057c:	97ba                	add	a5,a5,a4
   1057e:	6398                	ld	a4,0(a5)
   10580:	8e01b783          	ld	a5,-1824(gp) # 1d558 <__XBRTIME_CONFIG>
   10584:	7794                	ld	a3,40(a5)
   10586:	fec42783          	lw	a5,-20(s0)
   1058a:	0792                	slli	a5,a5,0x4
   1058c:	97b6                	add	a5,a5,a3
   1058e:	679c                	ld	a5,8(a5)
   10590:	97ba                	add	a5,a5,a4
   10592:	fe043703          	ld	a4,-32(s0)
   10596:	02f77b63          	bleu	a5,a4,105cc <__xbrtime_shared_free+0x92>
   1059a:	fd843503          	ld	a0,-40(s0)
   1059e:	00000097          	auipc	ra,0x0
   105a2:	1fc080e7          	jalr	508(ra) # 1079a <free>
   105a6:	8e01b783          	ld	a5,-1824(gp) # 1d558 <__XBRTIME_CONFIG>
   105aa:	7798                	ld	a4,40(a5)
   105ac:	fec42783          	lw	a5,-20(s0)
   105b0:	0792                	slli	a5,a5,0x4
   105b2:	97ba                	add	a5,a5,a4
   105b4:	0007b023          	sd	zero,0(a5)
   105b8:	8e01b783          	ld	a5,-1824(gp) # 1d558 <__XBRTIME_CONFIG>
   105bc:	7798                	ld	a4,40(a5)
   105be:	fec42783          	lw	a5,-20(s0)
   105c2:	0792                	slli	a5,a5,0x4
   105c4:	97ba                	add	a5,a5,a4
   105c6:	0007b423          	sd	zero,8(a5)
   105ca:	a831                	j	105e6 <__xbrtime_shared_free+0xac>
   105cc:	fec42783          	lw	a5,-20(s0)
   105d0:	2785                	addiw	a5,a5,1
   105d2:	fef42623          	sw	a5,-20(s0)
   105d6:	fec42783          	lw	a5,-20(s0)
   105da:	0007871b          	sext.w	a4,a5
   105de:	7ff00793          	li	a5,2047
   105e2:	f6e7dbe3          	ble	a4,a5,10558 <__xbrtime_shared_free+0x1e>
   105e6:	70a2                	ld	ra,40(sp)
   105e8:	7402                	ld	s0,32(sp)
   105ea:	6145                	addi	sp,sp,48
   105ec:	8082                	ret

00000000000105ee <xbrtime_free>:
   105ee:	1101                	addi	sp,sp,-32
   105f0:	ec06                	sd	ra,24(sp)
   105f2:	e822                	sd	s0,16(sp)
   105f4:	1000                	addi	s0,sp,32
   105f6:	fea43423          	sd	a0,-24(s0)
   105fa:	fe843783          	ld	a5,-24(s0)
   105fe:	c39d                	beqz	a5,10624 <xbrtime_free+0x36>
   10600:	8e01b783          	ld	a5,-1824(gp) # 1d558 <__XBRTIME_CONFIG>
   10604:	c395                	beqz	a5,10628 <xbrtime_free+0x3a>
   10606:	8e01b783          	ld	a5,-1824(gp) # 1d558 <__XBRTIME_CONFIG>
   1060a:	779c                	ld	a5,40(a5)
   1060c:	c385                	beqz	a5,1062c <xbrtime_free+0x3e>
   1060e:	fe843503          	ld	a0,-24(s0)
   10612:	00000097          	auipc	ra,0x0
   10616:	f28080e7          	jalr	-216(ra) # 1053a <__xbrtime_shared_free>
   1061a:	00000097          	auipc	ra,0x0
   1061e:	03a080e7          	jalr	58(ra) # 10654 <__xbrtime_asm_quiet_fence>
   10622:	a031                	j	1062e <xbrtime_free+0x40>
   10624:	0001                	nop
   10626:	a021                	j	1062e <xbrtime_free+0x40>
   10628:	0001                	nop
   1062a:	a011                	j	1062e <xbrtime_free+0x40>
   1062c:	0001                	nop
   1062e:	60e2                	ld	ra,24(sp)
   10630:	6442                	ld	s0,16(sp)
   10632:	6105                	addi	sp,sp,32
   10634:	8082                	ret

0000000000010636 <__xbrtime_asm_get_id>:
   10636:	0005657b          	eaddi	a0,e10,0 # 8000 <_start-0x80b0>
   1063a:	8082                	ret

000000000001063c <__xbrtime_asm_get_npes>:
   1063c:	0005e57b          	eaddi	a0,e11,0
   10640:	8082                	ret

0000000000010642 <__xbrtime_asm_get_memsize>:
   10642:	0006657b          	eaddi	a0,e12,0
   10646:	8082                	ret

0000000000010648 <__xbrtime_asm_get_startaddr>:
   10648:	0006e57b          	eaddi	a0,e13,0
   1064c:	8082                	ret

000000000001064e <__xbrtime_asm_fence>:
   1064e:	0000100f          	fence.i
   10652:	8082                	ret

0000000000010654 <__xbrtime_asm_quiet_fence>:
   10654:	0ff0000f          	fence
   10658:	8082                	ret
	...

000000000001065c <__xbrtime_ctor_reg_reset>:
   1065c:	0000777b          	eaddie	e14,zero,0 # 0 <_start-0x100b0>
   10660:	000077fb          	eaddie	e15,zero,0 # 0 <_start-0x100b0>
   10664:	0000787b          	eaddie	e16,zero,0 # 0 <_start-0x100b0>
   10668:	000078fb          	eaddie	e17,zero,0 # 0 <_start-0x100b0>
   1066c:	0000797b          	eaddie	e18,zero,0 # 0 <_start-0x100b0>
   10670:	000079fb          	eaddie	e19,zero,0 # 0 <_start-0x100b0>
   10674:	00007a7b          	eaddie	e20,zero,0 # 0 <_start-0x100b0>
   10678:	00007afb          	eaddie	e21,zero,0 # 0 <_start-0x100b0>
   1067c:	00007b7b          	eaddie	e22,zero,0 # 0 <_start-0x100b0>
   10680:	00007bfb          	eaddie	e23,zero,0 # 0 <_start-0x100b0>
   10684:	00007c7b          	eaddie	e24,zero,0 # 0 <_start-0x100b0>
   10688:	00007cfb          	eaddie	e25,zero,0 # 0 <_start-0x100b0>
   1068c:	00007d7b          	eaddie	e26,zero,0 # 0 <_start-0x100b0>
   10690:	00007dfb          	eaddie	e27,zero,0 # 0 <_start-0x100b0>
   10694:	00007e7b          	eaddie	e28,zero,0 # 0 <_start-0x100b0>
   10698:	00007efb          	eaddie	e29,zero,0 # 0 <_start-0x100b0>
   1069c:	00007f7b          	eaddie	e30,zero,0 # 0 <_start-0x100b0>
   106a0:	00007ffb          	eaddie	e31,zero,0 # 0 <_start-0x100b0>
   106a4:	8082                	ret
	...

00000000000106a8 <atexit>:
   106a8:	85aa                	mv	a1,a0
   106aa:	4681                	li	a3,0
   106ac:	4601                	li	a2,0
   106ae:	4501                	li	a0,0
   106b0:	6f30106f          	j	125a2 <__register_exitproc>
	...

00000000000106b6 <exit>:
   106b6:	1141                	addi	sp,sp,-16
   106b8:	4581                	li	a1,0
   106ba:	e022                	sd	s0,0(sp)
   106bc:	e406                	sd	ra,8(sp)
   106be:	842a                	mv	s0,a0
   106c0:	749010ef          	jal	ra,12608 <__call_exitprocs>
   106c4:	8281b503          	ld	a0,-2008(gp) # 1d4a0 <_global_impure_ptr>
   106c8:	6d3c                	ld	a5,88(a0)
   106ca:	c391                	beqz	a5,106ce <exit+0x18>
   106cc:	9782                	jalr	a5
   106ce:	8522                	mv	a0,s0
   106d0:	00009097          	auipc	ra,0x9
   106d4:	97e080e7          	jalr	-1666(ra) # 1904e <_exit>
	...

00000000000106da <__libc_fini_array>:
   106da:	7179                	addi	sp,sp,-48
   106dc:	67f1                	lui	a5,0x1c
   106de:	6771                	lui	a4,0x1c
   106e0:	f022                	sd	s0,32(sp)
   106e2:	36870713          	addi	a4,a4,872 # 1c368 <__init_array_end>
   106e6:	37878413          	addi	s0,a5,888 # 1c378 <__fini_array_end>
   106ea:	8c19                	sub	s0,s0,a4
   106ec:	ec26                	sd	s1,24(sp)
   106ee:	e84a                	sd	s2,16(sp)
   106f0:	e44e                	sd	s3,8(sp)
   106f2:	f406                	sd	ra,40(sp)
   106f4:	840d                	srai	s0,s0,0x3
   106f6:	4481                	li	s1,0
   106f8:	37878913          	addi	s2,a5,888
   106fc:	59e1                	li	s3,-8
   106fe:	00941c63          	bne	s0,s1,10716 <__libc_fini_array+0x3c>
   10702:	7402                	ld	s0,32(sp)
   10704:	70a2                	ld	ra,40(sp)
   10706:	64e2                	ld	s1,24(sp)
   10708:	6942                	ld	s2,16(sp)
   1070a:	69a2                	ld	s3,8(sp)
   1070c:	6145                	addi	sp,sp,48
   1070e:	00000317          	auipc	t1,0x0
   10712:	9e830067          	jr	-1560(t1) # 100f6 <_fini>
   10716:	033487b3          	mul	a5,s1,s3
   1071a:	0485                	addi	s1,s1,1
   1071c:	97ca                	add	a5,a5,s2
   1071e:	ff87b783          	ld	a5,-8(a5)
   10722:	9782                	jalr	a5
   10724:	bfe9                	j	106fe <__libc_fini_array+0x24>
	...

0000000000010728 <__libc_init_array>:
   10728:	1101                	addi	sp,sp,-32
   1072a:	e822                	sd	s0,16(sp)
   1072c:	e426                	sd	s1,8(sp)
   1072e:	6471                	lui	s0,0x1c
   10730:	64f1                	lui	s1,0x1c
   10732:	35448793          	addi	a5,s1,852 # 1c354 <__preinit_array_end>
   10736:	35440413          	addi	s0,s0,852 # 1c354 <__preinit_array_end>
   1073a:	8c1d                	sub	s0,s0,a5
   1073c:	e04a                	sd	s2,0(sp)
   1073e:	ec06                	sd	ra,24(sp)
   10740:	840d                	srai	s0,s0,0x3
   10742:	35448493          	addi	s1,s1,852
   10746:	4901                	li	s2,0
   10748:	02891963          	bne	s2,s0,1077a <__libc_init_array+0x52>
   1074c:	64f1                	lui	s1,0x1c
   1074e:	00000097          	auipc	ra,0x0
   10752:	9a8080e7          	jalr	-1624(ra) # 100f6 <_fini>
   10756:	6471                	lui	s0,0x1c
   10758:	35848793          	addi	a5,s1,856 # 1c358 <__frame_dummy_init_array_entry>
   1075c:	36840413          	addi	s0,s0,872 # 1c368 <__init_array_end>
   10760:	8c1d                	sub	s0,s0,a5
   10762:	840d                	srai	s0,s0,0x3
   10764:	35848493          	addi	s1,s1,856
   10768:	4901                	li	s2,0
   1076a:	00891d63          	bne	s2,s0,10784 <__libc_init_array+0x5c>
   1076e:	60e2                	ld	ra,24(sp)
   10770:	6442                	ld	s0,16(sp)
   10772:	64a2                	ld	s1,8(sp)
   10774:	6902                	ld	s2,0(sp)
   10776:	6105                	addi	sp,sp,32
   10778:	8082                	ret
   1077a:	609c                	ld	a5,0(s1)
   1077c:	0905                	addi	s2,s2,1
   1077e:	04a1                	addi	s1,s1,8
   10780:	9782                	jalr	a5
   10782:	b7d9                	j	10748 <__libc_init_array+0x20>
   10784:	609c                	ld	a5,0(s1)
   10786:	0905                	addi	s2,s2,1
   10788:	04a1                	addi	s1,s1,8
   1078a:	9782                	jalr	a5
   1078c:	bff9                	j	1076a <__libc_init_array+0x42>
	...

0000000000010790 <malloc>:
   10790:	85aa                	mv	a1,a0
   10792:	8301b503          	ld	a0,-2000(gp) # 1d4a8 <_impure_ptr>
   10796:	00e0006f          	j	107a4 <_malloc_r>

000000000001079a <free>:
   1079a:	85aa                	mv	a1,a0
   1079c:	8301b503          	ld	a0,-2000(gp) # 1d4a8 <_impure_ptr>
   107a0:	3940206f          	j	12b34 <_free_r>

00000000000107a4 <_malloc_r>:
   107a4:	715d                	addi	sp,sp,-80
   107a6:	fc26                	sd	s1,56(sp)
   107a8:	f84a                	sd	s2,48(sp)
   107aa:	e486                	sd	ra,72(sp)
   107ac:	e0a2                	sd	s0,64(sp)
   107ae:	f44e                	sd	s3,40(sp)
   107b0:	f052                	sd	s4,32(sp)
   107b2:	ec56                	sd	s5,24(sp)
   107b4:	e85a                	sd	s6,16(sp)
   107b6:	e45e                	sd	s7,8(sp)
   107b8:	e062                	sd	s8,0(sp)
   107ba:	01758493          	addi	s1,a1,23
   107be:	02e00793          	li	a5,46
   107c2:	892a                	mv	s2,a0
   107c4:	4a97fd63          	bleu	s1,a5,10c7e <_malloc_r+0x4da>
   107c8:	800007b7          	lui	a5,0x80000
   107cc:	98c1                	andi	s1,s1,-16
   107ce:	fff7c793          	not	a5,a5
   107d2:	0097e463          	bltu	a5,s1,107da <_malloc_r+0x36>
   107d6:	02b4f263          	bleu	a1,s1,107fa <_malloc_r+0x56>
   107da:	47b1                	li	a5,12
   107dc:	00f92023          	sw	a5,0(s2)
   107e0:	4501                	li	a0,0
   107e2:	60a6                	ld	ra,72(sp)
   107e4:	6406                	ld	s0,64(sp)
   107e6:	74e2                	ld	s1,56(sp)
   107e8:	7942                	ld	s2,48(sp)
   107ea:	79a2                	ld	s3,40(sp)
   107ec:	7a02                	ld	s4,32(sp)
   107ee:	6ae2                	ld	s5,24(sp)
   107f0:	6b42                	ld	s6,16(sp)
   107f2:	6ba2                	ld	s7,8(sp)
   107f4:	6c02                	ld	s8,0(sp)
   107f6:	6161                	addi	sp,sp,80
   107f8:	8082                	ret
   107fa:	542000ef          	jal	ra,10d3c <__malloc_lock>
   107fe:	1f700793          	li	a5,503
   10802:	0497ea63          	bltu	a5,s1,10856 <_malloc_r+0xb2>
   10806:	0034d793          	srli	a5,s1,0x3
   1080a:	2781                	sext.w	a5,a5
   1080c:	0017871b          	addiw	a4,a5,1
   10810:	0017171b          	slliw	a4,a4,0x1
   10814:	66f5                	lui	a3,0x1d
   10816:	ac068693          	addi	a3,a3,-1344 # 1cac0 <__malloc_av_>
   1081a:	070e                	slli	a4,a4,0x3
   1081c:	9736                	add	a4,a4,a3
   1081e:	6700                	ld	s0,8(a4)
   10820:	ff070693          	addi	a3,a4,-16
   10824:	00d41663          	bne	s0,a3,10830 <_malloc_r+0x8c>
   10828:	6f00                	ld	s0,24(a4)
   1082a:	2789                	addiw	a5,a5,2
   1082c:	06870863          	beq	a4,s0,1089c <_malloc_r+0xf8>
   10830:	641c                	ld	a5,8(s0)
   10832:	6c18                	ld	a4,24(s0)
   10834:	6814                	ld	a3,16(s0)
   10836:	9bf1                	andi	a5,a5,-4
   10838:	97a2                	add	a5,a5,s0
   1083a:	ee98                	sd	a4,24(a3)
   1083c:	eb14                	sd	a3,16(a4)
   1083e:	6798                	ld	a4,8(a5)
   10840:	00176713          	ori	a4,a4,1
   10844:	e798                	sd	a4,8(a5)
   10846:	854a                	mv	a0,s2
   10848:	00000097          	auipc	ra,0x0
   1084c:	4f6080e7          	jalr	1270(ra) # 10d3e <__malloc_unlock>
   10850:	01040513          	addi	a0,s0,16
   10854:	b779                	j	107e2 <_malloc_r+0x3e>
   10856:	0094d713          	srli	a4,s1,0x9
   1085a:	03f00793          	li	a5,63
   1085e:	cb01                	beqz	a4,1086e <_malloc_r+0xca>
   10860:	4791                	li	a5,4
   10862:	08e7e063          	bltu	a5,a4,108e2 <_malloc_r+0x13e>
   10866:	0064d793          	srli	a5,s1,0x6
   1086a:	0387879b          	addiw	a5,a5,56
   1086e:	0017871b          	addiw	a4,a5,1
   10872:	0017171b          	slliw	a4,a4,0x1
   10876:	66f5                	lui	a3,0x1d
   10878:	070e                	slli	a4,a4,0x3
   1087a:	ac068693          	addi	a3,a3,-1344 # 1cac0 <__malloc_av_>
   1087e:	9736                	add	a4,a4,a3
   10880:	6700                	ld	s0,8(a4)
   10882:	ff070593          	addi	a1,a4,-16
   10886:	457d                	li	a0,31
   10888:	00b40963          	beq	s0,a1,1089a <_malloc_r+0xf6>
   1088c:	6418                	ld	a4,8(s0)
   1088e:	9b71                	andi	a4,a4,-4
   10890:	40970633          	sub	a2,a4,s1
   10894:	08c55a63          	ble	a2,a0,10928 <_malloc_r+0x184>
   10898:	37fd                	addiw	a5,a5,-1
   1089a:	2785                	addiw	a5,a5,1
   1089c:	69f5                	lui	s3,0x1d
   1089e:	ac098693          	addi	a3,s3,-1344 # 1cac0 <__malloc_av_>
   108a2:	7280                	ld	s0,32(a3)
   108a4:	65f5                	lui	a1,0x1d
   108a6:	ad058613          	addi	a2,a1,-1328 # 1cad0 <__malloc_av_+0x10>
   108aa:	ac098993          	addi	s3,s3,-1344
   108ae:	ad058593          	addi	a1,a1,-1328
   108b2:	0cc40c63          	beq	s0,a2,1098a <_malloc_r+0x1e6>
   108b6:	6418                	ld	a4,8(s0)
   108b8:	487d                	li	a6,31
   108ba:	9b71                	andi	a4,a4,-4
   108bc:	40970533          	sub	a0,a4,s1
   108c0:	06a85f63          	ble	a0,a6,1093e <_malloc_r+0x19a>
   108c4:	009407b3          	add	a5,s0,s1
   108c8:	0014e493          	ori	s1,s1,1
   108cc:	e404                	sd	s1,8(s0)
   108ce:	f69c                	sd	a5,40(a3)
   108d0:	f29c                	sd	a5,32(a3)
   108d2:	00156693          	ori	a3,a0,1
   108d6:	ef90                	sd	a2,24(a5)
   108d8:	eb90                	sd	a2,16(a5)
   108da:	e794                	sd	a3,8(a5)
   108dc:	9722                	add	a4,a4,s0
   108de:	e308                	sd	a0,0(a4)
   108e0:	b79d                	j	10846 <_malloc_r+0xa2>
   108e2:	47d1                	li	a5,20
   108e4:	00e7e563          	bltu	a5,a4,108ee <_malloc_r+0x14a>
   108e8:	05b7079b          	addiw	a5,a4,91
   108ec:	b749                	j	1086e <_malloc_r+0xca>
   108ee:	05400793          	li	a5,84
   108f2:	00e7e763          	bltu	a5,a4,10900 <_malloc_r+0x15c>
   108f6:	00c4d793          	srli	a5,s1,0xc
   108fa:	06e7879b          	addiw	a5,a5,110
   108fe:	bf85                	j	1086e <_malloc_r+0xca>
   10900:	15400793          	li	a5,340
   10904:	00e7e763          	bltu	a5,a4,10912 <_malloc_r+0x16e>
   10908:	00f4d793          	srli	a5,s1,0xf
   1090c:	0777879b          	addiw	a5,a5,119
   10910:	bfb9                	j	1086e <_malloc_r+0xca>
   10912:	55400693          	li	a3,1364
   10916:	07e00793          	li	a5,126
   1091a:	f4e6eae3          	bltu	a3,a4,1086e <_malloc_r+0xca>
   1091e:	0124d793          	srli	a5,s1,0x12
   10922:	07c7879b          	addiw	a5,a5,124
   10926:	b7a1                	j	1086e <_malloc_r+0xca>
   10928:	6c14                	ld	a3,24(s0)
   1092a:	00064863          	bltz	a2,1093a <_malloc_r+0x196>
   1092e:	681c                	ld	a5,16(s0)
   10930:	ef94                	sd	a3,24(a5)
   10932:	ea9c                	sd	a5,16(a3)
   10934:	00e407b3          	add	a5,s0,a4
   10938:	b719                	j	1083e <_malloc_r+0x9a>
   1093a:	8436                	mv	s0,a3
   1093c:	b7b1                	j	10888 <_malloc_r+0xe4>
   1093e:	f690                	sd	a2,40(a3)
   10940:	f290                	sd	a2,32(a3)
   10942:	00054863          	bltz	a0,10952 <_malloc_r+0x1ae>
   10946:	9722                	add	a4,a4,s0
   10948:	671c                	ld	a5,8(a4)
   1094a:	0017e793          	ori	a5,a5,1
   1094e:	e71c                	sd	a5,8(a4)
   10950:	bddd                	j	10846 <_malloc_r+0xa2>
   10952:	1ff00693          	li	a3,511
   10956:	12e6e863          	bltu	a3,a4,10a86 <_malloc_r+0x2e2>
   1095a:	830d                	srli	a4,a4,0x3
   1095c:	2701                	sext.w	a4,a4
   1095e:	4027561b          	sraiw	a2,a4,0x2
   10962:	4685                	li	a3,1
   10964:	00c696b3          	sll	a3,a3,a2
   10968:	2705                	addiw	a4,a4,1
   1096a:	0089b603          	ld	a2,8(s3)
   1096e:	0017171b          	slliw	a4,a4,0x1
   10972:	070e                	slli	a4,a4,0x3
   10974:	8ed1                	or	a3,a3,a2
   10976:	974e                	add	a4,a4,s3
   10978:	00d9b423          	sd	a3,8(s3)
   1097c:	6314                	ld	a3,0(a4)
   1097e:	ff070613          	addi	a2,a4,-16
   10982:	ec10                	sd	a2,24(s0)
   10984:	e814                	sd	a3,16(s0)
   10986:	e300                	sd	s0,0(a4)
   10988:	ee80                	sd	s0,24(a3)
   1098a:	4027d71b          	sraiw	a4,a5,0x2
   1098e:	4305                	li	t1,1
   10990:	00e31333          	sll	t1,t1,a4
   10994:	0089b703          	ld	a4,8(s3)
   10998:	06676063          	bltu	a4,t1,109f8 <_malloc_r+0x254>
   1099c:	006776b3          	and	a3,a4,t1
   109a0:	e699                	bnez	a3,109ae <_malloc_r+0x20a>
   109a2:	9bf1                	andi	a5,a5,-4
   109a4:	0306                	slli	t1,t1,0x1
   109a6:	006776b3          	and	a3,a4,t1
   109aa:	2791                	addiw	a5,a5,4
   109ac:	dee5                	beqz	a3,109a4 <_malloc_r+0x200>
   109ae:	4e7d                	li	t3,31
   109b0:	0017871b          	addiw	a4,a5,1
   109b4:	0017171b          	slliw	a4,a4,0x1
   109b8:	070e                	slli	a4,a4,0x3
   109ba:	1741                	addi	a4,a4,-16
   109bc:	974e                	add	a4,a4,s3
   109be:	883a                	mv	a6,a4
   109c0:	853e                	mv	a0,a5
   109c2:	01883403          	ld	s0,24(a6)
   109c6:	15041f63          	bne	s0,a6,10b24 <_malloc_r+0x380>
   109ca:	2505                	addiw	a0,a0,1
   109cc:	00357693          	andi	a3,a0,3
   109d0:	0841                	addi	a6,a6,16
   109d2:	fae5                	bnez	a3,109c2 <_malloc_r+0x21e>
   109d4:	0037f693          	andi	a3,a5,3
   109d8:	18069f63          	bnez	a3,10b76 <_malloc_r+0x3d2>
   109dc:	0089b703          	ld	a4,8(s3)
   109e0:	fff34793          	not	a5,t1
   109e4:	8ff9                	and	a5,a5,a4
   109e6:	00f9b423          	sd	a5,8(s3)
   109ea:	0089b683          	ld	a3,8(s3)
   109ee:	0306                	slli	t1,t1,0x1
   109f0:	0066e463          	bltu	a3,t1,109f8 <_malloc_r+0x254>
   109f4:	18031e63          	bnez	t1,10b90 <_malloc_r+0x3ec>
   109f8:	0109bb03          	ld	s6,16(s3)
   109fc:	008b3403          	ld	s0,8(s6)
   10a00:	ffc47a13          	andi	s4,s0,-4
   10a04:	009a6763          	bltu	s4,s1,10a12 <_malloc_r+0x26e>
   10a08:	409a07b3          	sub	a5,s4,s1
   10a0c:	477d                	li	a4,31
   10a0e:	24f74c63          	blt	a4,a5,10c66 <_malloc_r+0x4c2>
   10a12:	8581b403          	ld	s0,-1960(gp) # 1d4d0 <__malloc_top_pad>
   10a16:	8381b703          	ld	a4,-1992(gp) # 1d4b0 <__malloc_sbrk_base>
   10a1a:	57fd                	li	a5,-1
   10a1c:	9426                	add	s0,s0,s1
   10a1e:	16f71b63          	bne	a4,a5,10b94 <_malloc_r+0x3f0>
   10a22:	02040413          	addi	s0,s0,32
   10a26:	85a2                	mv	a1,s0
   10a28:	854a                	mv	a0,s2
   10a2a:	3ee000ef          	jal	ra,10e18 <_sbrk_r>
   10a2e:	57fd                	li	a5,-1
   10a30:	8aaa                	mv	s5,a0
   10a32:	1cf50b63          	beq	a0,a5,10c08 <_malloc_r+0x464>
   10a36:	014b07b3          	add	a5,s6,s4
   10a3a:	00f57463          	bleu	a5,a0,10a42 <_malloc_r+0x29e>
   10a3e:	1d3b1563          	bne	s6,s3,10c08 <_malloc_r+0x464>
   10a42:	8a818693          	addi	a3,gp,-1880 # 1d520 <__malloc_current_mallinfo>
   10a46:	4298                	lw	a4,0(a3)
   10a48:	8a818b93          	addi	s7,gp,-1880 # 1d520 <__malloc_current_mallinfo>
   10a4c:	9f21                	addw	a4,a4,s0
   10a4e:	c298                	sw	a4,0(a3)
   10a50:	15579863          	bne	a5,s5,10ba0 <_malloc_r+0x3fc>
   10a54:	03479693          	slli	a3,a5,0x34
   10a58:	14069463          	bnez	a3,10ba0 <_malloc_r+0x3fc>
   10a5c:	0109b783          	ld	a5,16(s3)
   10a60:	9452                	add	s0,s0,s4
   10a62:	00146413          	ori	s0,s0,1
   10a66:	e780                	sd	s0,8(a5)
   10a68:	000ba783          	lw	a5,0(s7)
   10a6c:	8501b683          	ld	a3,-1968(gp) # 1d4c8 <__malloc_max_sbrked_mem>
   10a70:	00f6f463          	bleu	a5,a3,10a78 <_malloc_r+0x2d4>
   10a74:	84f1b823          	sd	a5,-1968(gp) # 1d4c8 <__malloc_max_sbrked_mem>
   10a78:	8481b683          	ld	a3,-1976(gp) # 1d4c0 <_edata>
   10a7c:	18f6f663          	bleu	a5,a3,10c08 <_malloc_r+0x464>
   10a80:	84f1b423          	sd	a5,-1976(gp) # 1d4c0 <_edata>
   10a84:	a251                	j	10c08 <_malloc_r+0x464>
   10a86:	00975613          	srli	a2,a4,0x9
   10a8a:	4691                	li	a3,4
   10a8c:	04c6e063          	bltu	a3,a2,10acc <_malloc_r+0x328>
   10a90:	00675693          	srli	a3,a4,0x6
   10a94:	0386869b          	addiw	a3,a3,56
   10a98:	0016861b          	addiw	a2,a3,1
   10a9c:	0016161b          	slliw	a2,a2,0x1
   10aa0:	060e                	slli	a2,a2,0x3
   10aa2:	964e                	add	a2,a2,s3
   10aa4:	ff060513          	addi	a0,a2,-16
   10aa8:	6210                	ld	a2,0(a2)
   10aaa:	06c51763          	bne	a0,a2,10b18 <_malloc_r+0x374>
   10aae:	4705                	li	a4,1
   10ab0:	4026d69b          	sraiw	a3,a3,0x2
   10ab4:	00d716b3          	sll	a3,a4,a3
   10ab8:	0089b703          	ld	a4,8(s3)
   10abc:	8ed9                	or	a3,a3,a4
   10abe:	00d9b423          	sd	a3,8(s3)
   10ac2:	ec08                	sd	a0,24(s0)
   10ac4:	e810                	sd	a2,16(s0)
   10ac6:	e900                	sd	s0,16(a0)
   10ac8:	ee00                	sd	s0,24(a2)
   10aca:	b5c1                	j	1098a <_malloc_r+0x1e6>
   10acc:	46d1                	li	a3,20
   10ace:	00c6e563          	bltu	a3,a2,10ad8 <_malloc_r+0x334>
   10ad2:	05b6069b          	addiw	a3,a2,91
   10ad6:	b7c9                	j	10a98 <_malloc_r+0x2f4>
   10ad8:	05400693          	li	a3,84
   10adc:	00c6e763          	bltu	a3,a2,10aea <_malloc_r+0x346>
   10ae0:	00c75693          	srli	a3,a4,0xc
   10ae4:	06e6869b          	addiw	a3,a3,110
   10ae8:	bf45                	j	10a98 <_malloc_r+0x2f4>
   10aea:	15400693          	li	a3,340
   10aee:	00c6e763          	bltu	a3,a2,10afc <_malloc_r+0x358>
   10af2:	00f75693          	srli	a3,a4,0xf
   10af6:	0776869b          	addiw	a3,a3,119
   10afa:	bf79                	j	10a98 <_malloc_r+0x2f4>
   10afc:	55400513          	li	a0,1364
   10b00:	07e00693          	li	a3,126
   10b04:	f8c56ae3          	bltu	a0,a2,10a98 <_malloc_r+0x2f4>
   10b08:	01275693          	srli	a3,a4,0x12
   10b0c:	07c6869b          	addiw	a3,a3,124
   10b10:	b761                	j	10a98 <_malloc_r+0x2f4>
   10b12:	6a10                	ld	a2,16(a2)
   10b14:	00c50663          	beq	a0,a2,10b20 <_malloc_r+0x37c>
   10b18:	6614                	ld	a3,8(a2)
   10b1a:	9af1                	andi	a3,a3,-4
   10b1c:	fed76be3          	bltu	a4,a3,10b12 <_malloc_r+0x36e>
   10b20:	6e08                	ld	a0,24(a2)
   10b22:	b745                	j	10ac2 <_malloc_r+0x31e>
   10b24:	6414                	ld	a3,8(s0)
   10b26:	6c10                	ld	a2,24(s0)
   10b28:	9af1                	andi	a3,a3,-4
   10b2a:	409688b3          	sub	a7,a3,s1
   10b2e:	031e5763          	ble	a7,t3,10b5c <_malloc_r+0x3b8>
   10b32:	6818                	ld	a4,16(s0)
   10b34:	009407b3          	add	a5,s0,s1
   10b38:	0014e493          	ori	s1,s1,1
   10b3c:	e404                	sd	s1,8(s0)
   10b3e:	ef10                	sd	a2,24(a4)
   10b40:	ea18                	sd	a4,16(a2)
   10b42:	02f9b423          	sd	a5,40(s3)
   10b46:	02f9b023          	sd	a5,32(s3)
   10b4a:	0018e713          	ori	a4,a7,1
   10b4e:	ef8c                	sd	a1,24(a5)
   10b50:	eb8c                	sd	a1,16(a5)
   10b52:	e798                	sd	a4,8(a5)
   10b54:	96a2                	add	a3,a3,s0
   10b56:	0116b023          	sd	a7,0(a3)
   10b5a:	b1f5                	j	10846 <_malloc_r+0xa2>
   10b5c:	0008cb63          	bltz	a7,10b72 <_malloc_r+0x3ce>
   10b60:	96a2                	add	a3,a3,s0
   10b62:	669c                	ld	a5,8(a3)
   10b64:	0017e793          	ori	a5,a5,1
   10b68:	e69c                	sd	a5,8(a3)
   10b6a:	681c                	ld	a5,16(s0)
   10b6c:	ef90                	sd	a2,24(a5)
   10b6e:	ea1c                	sd	a5,16(a2)
   10b70:	b9d9                	j	10846 <_malloc_r+0xa2>
   10b72:	8432                	mv	s0,a2
   10b74:	bd89                	j	109c6 <_malloc_r+0x222>
   10b76:	ff070693          	addi	a3,a4,-16
   10b7a:	6318                	ld	a4,0(a4)
   10b7c:	37fd                	addiw	a5,a5,-1
   10b7e:	e4d70be3          	beq	a4,a3,109d4 <_malloc_r+0x230>
   10b82:	b5a5                	j	109ea <_malloc_r+0x246>
   10b84:	2791                	addiw	a5,a5,4
   10b86:	0306                	slli	t1,t1,0x1
   10b88:	0066f733          	and	a4,a3,t1
   10b8c:	df65                	beqz	a4,10b84 <_malloc_r+0x3e0>
   10b8e:	b50d                	j	109b0 <_malloc_r+0x20c>
   10b90:	87aa                	mv	a5,a0
   10b92:	bfdd                	j	10b88 <_malloc_r+0x3e4>
   10b94:	6785                	lui	a5,0x1
   10b96:	07fd                	addi	a5,a5,31
   10b98:	943e                	add	s0,s0,a5
   10b9a:	77fd                	lui	a5,0xfffff
   10b9c:	8c7d                	and	s0,s0,a5
   10b9e:	b561                	j	10a26 <_malloc_r+0x282>
   10ba0:	8381b603          	ld	a2,-1992(gp) # 1d4b0 <__malloc_sbrk_base>
   10ba4:	56fd                	li	a3,-1
   10ba6:	08d61263          	bne	a2,a3,10c2a <_malloc_r+0x486>
   10baa:	8351bc23          	sd	s5,-1992(gp) # 1d4b0 <__malloc_sbrk_base>
   10bae:	00faf593          	andi	a1,s5,15
   10bb2:	c589                	beqz	a1,10bbc <_malloc_r+0x418>
   10bb4:	47c1                	li	a5,16
   10bb6:	40b785b3          	sub	a1,a5,a1
   10bba:	9aae                	add	s5,s5,a1
   10bbc:	6785                	lui	a5,0x1
   10bbe:	95be                	add	a1,a1,a5
   10bc0:	9456                	add	s0,s0,s5
   10bc2:	17fd                	addi	a5,a5,-1
   10bc4:	8c7d                	and	s0,s0,a5
   10bc6:	40858433          	sub	s0,a1,s0
   10bca:	85a2                	mv	a1,s0
   10bcc:	854a                	mv	a0,s2
   10bce:	24a000ef          	jal	ra,10e18 <_sbrk_r>
   10bd2:	57fd                	li	a5,-1
   10bd4:	00f51463          	bne	a0,a5,10bdc <_malloc_r+0x438>
   10bd8:	8556                	mv	a0,s5
   10bda:	4401                	li	s0,0
   10bdc:	000ba783          	lw	a5,0(s7)
   10be0:	41550533          	sub	a0,a0,s5
   10be4:	0159b823          	sd	s5,16(s3)
   10be8:	9fa1                	addw	a5,a5,s0
   10bea:	942a                	add	s0,s0,a0
   10bec:	00146413          	ori	s0,s0,1
   10bf0:	00fba023          	sw	a5,0(s7)
   10bf4:	008ab423          	sd	s0,8(s5)
   10bf8:	e73b08e3          	beq	s6,s3,10a68 <_malloc_r+0x2c4>
   10bfc:	477d                	li	a4,31
   10bfe:	03476c63          	bltu	a4,s4,10c36 <_malloc_r+0x492>
   10c02:	4785                	li	a5,1
   10c04:	00fab423          	sd	a5,8(s5)
   10c08:	0109b783          	ld	a5,16(s3)
   10c0c:	6798                	ld	a4,8(a5)
   10c0e:	9b71                	andi	a4,a4,-4
   10c10:	409707b3          	sub	a5,a4,s1
   10c14:	00976563          	bltu	a4,s1,10c1e <_malloc_r+0x47a>
   10c18:	477d                	li	a4,31
   10c1a:	04f74663          	blt	a4,a5,10c66 <_malloc_r+0x4c2>
   10c1e:	854a                	mv	a0,s2
   10c20:	00000097          	auipc	ra,0x0
   10c24:	11e080e7          	jalr	286(ra) # 10d3e <__malloc_unlock>
   10c28:	be65                	j	107e0 <_malloc_r+0x3c>
   10c2a:	40fa87b3          	sub	a5,s5,a5
   10c2e:	9fb9                	addw	a5,a5,a4
   10c30:	00fba023          	sw	a5,0(s7)
   10c34:	bfad                	j	10bae <_malloc_r+0x40a>
   10c36:	008b3783          	ld	a5,8(s6)
   10c3a:	fe8a0413          	addi	s0,s4,-24
   10c3e:	9841                	andi	s0,s0,-16
   10c40:	8b85                	andi	a5,a5,1
   10c42:	8fc1                	or	a5,a5,s0
   10c44:	00fb3423          	sd	a5,8(s6)
   10c48:	46a5                	li	a3,9
   10c4a:	008b07b3          	add	a5,s6,s0
   10c4e:	e794                	sd	a3,8(a5)
   10c50:	eb94                	sd	a3,16(a5)
   10c52:	e0877be3          	bleu	s0,a4,10a68 <_malloc_r+0x2c4>
   10c56:	010b0593          	addi	a1,s6,16
   10c5a:	854a                	mv	a0,s2
   10c5c:	00002097          	auipc	ra,0x2
   10c60:	ed8080e7          	jalr	-296(ra) # 12b34 <_free_r>
   10c64:	b511                	j	10a68 <_malloc_r+0x2c4>
   10c66:	0109b403          	ld	s0,16(s3)
   10c6a:	0014e713          	ori	a4,s1,1
   10c6e:	0017e793          	ori	a5,a5,1
   10c72:	e418                	sd	a4,8(s0)
   10c74:	94a2                	add	s1,s1,s0
   10c76:	0099b823          	sd	s1,16(s3)
   10c7a:	e49c                	sd	a5,8(s1)
   10c7c:	b6e9                	j	10846 <_malloc_r+0xa2>
   10c7e:	02000793          	li	a5,32
   10c82:	b4b7ece3          	bltu	a5,a1,107da <_malloc_r+0x36>
   10c86:	0b6000ef          	jal	ra,10d3c <__malloc_lock>
   10c8a:	02000493          	li	s1,32
   10c8e:	bea5                	j	10806 <_malloc_r+0x62>
	...

0000000000010c92 <memset>:
   10c92:	483d                	li	a6,15
   10c94:	872a                	mv	a4,a0
   10c96:	02c87163          	bleu	a2,a6,10cb8 <memset+0x26>
   10c9a:	00f77793          	andi	a5,a4,15
   10c9e:	e3c1                	bnez	a5,10d1e <memset+0x8c>
   10ca0:	e1bd                	bnez	a1,10d06 <memset+0x74>
   10ca2:	ff067693          	andi	a3,a2,-16
   10ca6:	8a3d                	andi	a2,a2,15
   10ca8:	96ba                	add	a3,a3,a4
   10caa:	e30c                	sd	a1,0(a4)
   10cac:	e70c                	sd	a1,8(a4)
   10cae:	0741                	addi	a4,a4,16
   10cb0:	fed76de3          	bltu	a4,a3,10caa <memset+0x18>
   10cb4:	e211                	bnez	a2,10cb8 <memset+0x26>
   10cb6:	8082                	ret
   10cb8:	40c806b3          	sub	a3,a6,a2
   10cbc:	068a                	slli	a3,a3,0x2
   10cbe:	00000297          	auipc	t0,0x0
   10cc2:	9696                	add	a3,a3,t0
   10cc4:	00a68067          	jr	10(a3)
   10cc8:	00b70723          	sb	a1,14(a4)
   10ccc:	00b706a3          	sb	a1,13(a4)
   10cd0:	00b70623          	sb	a1,12(a4)
   10cd4:	00b705a3          	sb	a1,11(a4)
   10cd8:	00b70523          	sb	a1,10(a4)
   10cdc:	00b704a3          	sb	a1,9(a4)
   10ce0:	00b70423          	sb	a1,8(a4)
   10ce4:	00b703a3          	sb	a1,7(a4)
   10ce8:	00b70323          	sb	a1,6(a4)
   10cec:	00b702a3          	sb	a1,5(a4)
   10cf0:	00b70223          	sb	a1,4(a4)
   10cf4:	00b701a3          	sb	a1,3(a4)
   10cf8:	00b70123          	sb	a1,2(a4)
   10cfc:	00b700a3          	sb	a1,1(a4)
   10d00:	00b70023          	sb	a1,0(a4)
   10d04:	8082                	ret
   10d06:	0ff5f593          	andi	a1,a1,255
   10d0a:	00859693          	slli	a3,a1,0x8
   10d0e:	8dd5                	or	a1,a1,a3
   10d10:	01059693          	slli	a3,a1,0x10
   10d14:	8dd5                	or	a1,a1,a3
   10d16:	02059693          	slli	a3,a1,0x20
   10d1a:	8dd5                	or	a1,a1,a3
   10d1c:	b759                	j	10ca2 <memset+0x10>
   10d1e:	00279693          	slli	a3,a5,0x2
   10d22:	00000297          	auipc	t0,0x0
   10d26:	9696                	add	a3,a3,t0
   10d28:	8286                	mv	t0,ra
   10d2a:	fa2680e7          	jalr	-94(a3)
   10d2e:	8096                	mv	ra,t0
   10d30:	17c1                	addi	a5,a5,-16
   10d32:	8f1d                	sub	a4,a4,a5
   10d34:	963e                	add	a2,a2,a5
   10d36:	f8c871e3          	bleu	a2,a6,10cb8 <memset+0x26>
   10d3a:	b79d                	j	10ca0 <memset+0xe>

0000000000010d3c <__malloc_lock>:
   10d3c:	8082                	ret

0000000000010d3e <__malloc_unlock>:
   10d3e:	8082                	ret

0000000000010d40 <_printf_r>:
   10d40:	715d                	addi	sp,sp,-80
   10d42:	f032                	sd	a2,32(sp)
   10d44:	f436                	sd	a3,40(sp)
   10d46:	f83a                	sd	a4,48(sp)
   10d48:	fc3e                	sd	a5,56(sp)
   10d4a:	e0c2                	sd	a6,64(sp)
   10d4c:	e4c6                	sd	a7,72(sp)
   10d4e:	862e                	mv	a2,a1
   10d50:	690c                	ld	a1,16(a0)
   10d52:	1014                	addi	a3,sp,32
   10d54:	ec06                	sd	ra,24(sp)
   10d56:	e436                	sd	a3,8(sp)
   10d58:	102000ef          	jal	ra,10e5a <_vfprintf_r>
   10d5c:	60e2                	ld	ra,24(sp)
   10d5e:	6161                	addi	sp,sp,80
   10d60:	8082                	ret

0000000000010d62 <printf>:
   10d62:	711d                	addi	sp,sp,-96
   10d64:	e4be                	sd	a5,72(sp)
   10d66:	8301b783          	ld	a5,-2000(gp) # 1d4a8 <_impure_ptr>
   10d6a:	f832                	sd	a2,48(sp)
   10d6c:	fc36                	sd	a3,56(sp)
   10d6e:	f42e                	sd	a1,40(sp)
   10d70:	e0ba                	sd	a4,64(sp)
   10d72:	e8c2                	sd	a6,80(sp)
   10d74:	ecc6                	sd	a7,88(sp)
   10d76:	6b8c                	ld	a1,16(a5)
   10d78:	1034                	addi	a3,sp,40
   10d7a:	862a                	mv	a2,a0
   10d7c:	853e                	mv	a0,a5
   10d7e:	ec06                	sd	ra,24(sp)
   10d80:	e436                	sd	a3,8(sp)
   10d82:	00000097          	auipc	ra,0x0
   10d86:	0d8080e7          	jalr	216(ra) # 10e5a <_vfprintf_r>
   10d8a:	60e2                	ld	ra,24(sp)
   10d8c:	6125                	addi	sp,sp,96
   10d8e:	8082                	ret

0000000000010d90 <_puts_r>:
   10d90:	711d                	addi	sp,sp,-96
   10d92:	e8a2                	sd	s0,80(sp)
   10d94:	842a                	mv	s0,a0
   10d96:	852e                	mv	a0,a1
   10d98:	e42e                	sd	a1,8(sp)
   10d9a:	ec86                	sd	ra,88(sp)
   10d9c:	0aa000ef          	jal	ra,10e46 <strlen>
   10da0:	0001a7b7          	lui	a5,0x1a
   10da4:	65078793          	addi	a5,a5,1616 # 1a650 <__clzdi2+0xd8>
   10da8:	e0be                	sd	a5,64(sp)
   10daa:	4785                	li	a5,1
   10dac:	e4be                	sd	a5,72(sp)
   10dae:	181c                	addi	a5,sp,48
   10db0:	65a2                	ld	a1,8(sp)
   10db2:	ec3e                	sd	a5,24(sp)
   10db4:	4789                	li	a5,2
   10db6:	d03e                	sw	a5,32(sp)
   10db8:	483c                	lw	a5,80(s0)
   10dba:	fc2a                	sd	a0,56(sp)
   10dbc:	0505                	addi	a0,a0,1
   10dbe:	f82e                	sd	a1,48(sp)
   10dc0:	f42a                	sd	a0,40(sp)
   10dc2:	680c                	ld	a1,16(s0)
   10dc4:	e791                	bnez	a5,10dd0 <_puts_r+0x40>
   10dc6:	8522                	mv	a0,s0
   10dc8:	e42e                	sd	a1,8(sp)
   10dca:	387010ef          	jal	ra,12950 <__sinit>
   10dce:	65a2                	ld	a1,8(sp)
   10dd0:	01059783          	lh	a5,16(a1)
   10dd4:	03279713          	slli	a4,a5,0x32
   10dd8:	00074d63          	bltz	a4,10df2 <_puts_r+0x62>
   10ddc:	6689                	lui	a3,0x2
   10dde:	0ac5a703          	lw	a4,172(a1)
   10de2:	8fd5                	or	a5,a5,a3
   10de4:	00f59823          	sh	a5,16(a1)
   10de8:	77f9                	lui	a5,0xffffe
   10dea:	17fd                	addi	a5,a5,-1
   10dec:	8ff9                	and	a5,a5,a4
   10dee:	0af5a623          	sw	a5,172(a1)
   10df2:	0830                	addi	a2,sp,24
   10df4:	8522                	mv	a0,s0
   10df6:	6f9010ef          	jal	ra,12cee <__sfvwrite_r>
   10dfa:	57fd                	li	a5,-1
   10dfc:	e111                	bnez	a0,10e00 <_puts_r+0x70>
   10dfe:	47a9                	li	a5,10
   10e00:	60e6                	ld	ra,88(sp)
   10e02:	6446                	ld	s0,80(sp)
   10e04:	853e                	mv	a0,a5
   10e06:	6125                	addi	sp,sp,96
   10e08:	8082                	ret

0000000000010e0a <puts>:
   10e0a:	85aa                	mv	a1,a0
   10e0c:	8301b503          	ld	a0,-2000(gp) # 1d4a8 <_impure_ptr>
   10e10:	00000317          	auipc	t1,0x0
   10e14:	f8030067          	jr	-128(t1) # 10d90 <_puts_r>

0000000000010e18 <_sbrk_r>:
   10e18:	1101                	addi	sp,sp,-32
   10e1a:	e822                	sd	s0,16(sp)
   10e1c:	e426                	sd	s1,8(sp)
   10e1e:	84aa                	mv	s1,a0
   10e20:	852e                	mv	a0,a1
   10e22:	ec06                	sd	ra,24(sp)
   10e24:	8e01a823          	sw	zero,-1808(gp) # 1d568 <errno>
   10e28:	1ca080ef          	jal	ra,18ff2 <sbrk>
   10e2c:	57fd                	li	a5,-1
   10e2e:	00f51663          	bne	a0,a5,10e3a <_sbrk_r+0x22>
   10e32:	8f01a783          	lw	a5,-1808(gp) # 1d568 <errno>
   10e36:	c391                	beqz	a5,10e3a <_sbrk_r+0x22>
   10e38:	c09c                	sw	a5,0(s1)
   10e3a:	60e2                	ld	ra,24(sp)
   10e3c:	6442                	ld	s0,16(sp)
   10e3e:	64a2                	ld	s1,8(sp)
   10e40:	6105                	addi	sp,sp,32
   10e42:	8082                	ret
	...

0000000000010e46 <strlen>:
   10e46:	87aa                	mv	a5,a0
   10e48:	0785                	addi	a5,a5,1
   10e4a:	fff7c703          	lbu	a4,-1(a5) # ffffffffffffdfff <__global_pointer$+0xfffffffffffe0387>
   10e4e:	ff6d                	bnez	a4,10e48 <strlen+0x2>
   10e50:	40a78533          	sub	a0,a5,a0
   10e54:	157d                	addi	a0,a0,-1
   10e56:	8082                	ret
	...

0000000000010e5a <_vfprintf_r>:
   10e5a:	d9010113          	addi	sp,sp,-624
   10e5e:	26113423          	sd	ra,616(sp)
   10e62:	24913c23          	sd	s1,600(sp)
   10e66:	25213823          	sd	s2,592(sp)
   10e6a:	25313423          	sd	s3,584(sp)
   10e6e:	23813023          	sd	s8,544(sp)
   10e72:	892e                	mv	s2,a1
   10e74:	84b2                	mv	s1,a2
   10e76:	8c36                	mv	s8,a3
   10e78:	26813023          	sd	s0,608(sp)
   10e7c:	25413023          	sd	s4,576(sp)
   10e80:	23513c23          	sd	s5,568(sp)
   10e84:	23613823          	sd	s6,560(sp)
   10e88:	23713423          	sd	s7,552(sp)
   10e8c:	21913c23          	sd	s9,536(sp)
   10e90:	21a13823          	sd	s10,528(sp)
   10e94:	21b13423          	sd	s11,520(sp)
   10e98:	89aa                	mv	s3,a0
   10e9a:	00004097          	auipc	ra,0x4
   10e9e:	a6c080e7          	jalr	-1428(ra) # 14906 <_localeconv_r>
   10ea2:	611c                	ld	a5,0(a0)
   10ea4:	853e                	mv	a0,a5
   10ea6:	e8be                	sd	a5,80(sp)
   10ea8:	f9fff0ef          	jal	ra,10e46 <strlen>
   10eac:	f02a                	sd	a0,32(sp)
   10eae:	f982                	sd	zero,240(sp)
   10eb0:	fd82                	sd	zero,248(sp)
   10eb2:	00098863          	beqz	s3,10ec2 <_vfprintf_r+0x68>
   10eb6:	0509a783          	lw	a5,80(s3)
   10eba:	e781                	bnez	a5,10ec2 <_vfprintf_r+0x68>
   10ebc:	854e                	mv	a0,s3
   10ebe:	293010ef          	jal	ra,12950 <__sinit>
   10ec2:	01091783          	lh	a5,16(s2)
   10ec6:	03279713          	slli	a4,a5,0x32
   10eca:	00074d63          	bltz	a4,10ee4 <_vfprintf_r+0x8a>
   10ece:	6689                	lui	a3,0x2
   10ed0:	0ac92703          	lw	a4,172(s2)
   10ed4:	8fd5                	or	a5,a5,a3
   10ed6:	00f91823          	sh	a5,16(s2)
   10eda:	77f9                	lui	a5,0xffffe
   10edc:	17fd                	addi	a5,a5,-1
   10ede:	8ff9                	and	a5,a5,a4
   10ee0:	0af92623          	sw	a5,172(s2)
   10ee4:	01095783          	lhu	a5,16(s2)
   10ee8:	8ba1                	andi	a5,a5,8
   10eea:	c3bd                	beqz	a5,10f50 <_vfprintf_r+0xf6>
   10eec:	01893783          	ld	a5,24(s2)
   10ef0:	c3a5                	beqz	a5,10f50 <_vfprintf_r+0xf6>
   10ef2:	01095783          	lhu	a5,16(s2)
   10ef6:	4729                	li	a4,10
   10ef8:	8be9                	andi	a5,a5,26
   10efa:	06e79363          	bne	a5,a4,10f60 <_vfprintf_r+0x106>
   10efe:	01291783          	lh	a5,18(s2)
   10f02:	0407cf63          	bltz	a5,10f60 <_vfprintf_r+0x106>
   10f06:	86e2                	mv	a3,s8
   10f08:	8626                	mv	a2,s1
   10f0a:	85ca                	mv	a1,s2
   10f0c:	854e                	mv	a0,s3
   10f0e:	51c010ef          	jal	ra,1242a <__sbprintf>
   10f12:	f82a                	sd	a0,48(sp)
   10f14:	26813083          	ld	ra,616(sp)
   10f18:	26013403          	ld	s0,608(sp)
   10f1c:	7542                	ld	a0,48(sp)
   10f1e:	25813483          	ld	s1,600(sp)
   10f22:	25013903          	ld	s2,592(sp)
   10f26:	24813983          	ld	s3,584(sp)
   10f2a:	24013a03          	ld	s4,576(sp)
   10f2e:	23813a83          	ld	s5,568(sp)
   10f32:	23013b03          	ld	s6,560(sp)
   10f36:	22813b83          	ld	s7,552(sp)
   10f3a:	22013c03          	ld	s8,544(sp)
   10f3e:	21813c83          	ld	s9,536(sp)
   10f42:	21013d03          	ld	s10,528(sp)
   10f46:	20813d83          	ld	s11,520(sp)
   10f4a:	27010113          	addi	sp,sp,624
   10f4e:	8082                	ret
   10f50:	85ca                	mv	a1,s2
   10f52:	854e                	mv	a0,s3
   10f54:	56a010ef          	jal	ra,124be <__swsetup_r>
   10f58:	dd49                	beqz	a0,10ef2 <_vfprintf_r+0x98>
   10f5a:	57fd                	li	a5,-1
   10f5c:	f83e                	sd	a5,48(sp)
   10f5e:	bf5d                	j	10f14 <_vfprintf_r+0xba>
   10f60:	67e9                	lui	a5,0x1a
   10f62:	65878793          	addi	a5,a5,1624 # 1a658 <__clzdi2+0xe0>
   10f66:	f13e                	sd	a5,160(sp)
   10f68:	67e9                	lui	a5,0x1a
   10f6a:	18010a93          	addi	s5,sp,384
   10f6e:	7d878793          	addi	a5,a5,2008 # 1a7d8 <zeroes.4413>
   10f72:	e256                	sd	s5,256(sp)
   10f74:	ea02                	sd	zero,272(sp)
   10f76:	10012423          	sw	zero,264(sp)
   10f7a:	4a01                	li	s4,0
   10f7c:	8bd6                	mv	s7,s5
   10f7e:	f482                	sd	zero,104(sp)
   10f80:	f082                	sd	zero,96(sp)
   10f82:	e002                	sd	zero,0(sp)
   10f84:	e482                	sd	zero,72(sp)
   10f86:	ec82                	sd	zero,88(sp)
   10f88:	f802                	sd	zero,48(sp)
   10f8a:	e83e                	sd	a5,16(sp)
   10f8c:	8426                	mv	s0,s1
   10f8e:	02500713          	li	a4,37
   10f92:	00044783          	lbu	a5,0(s0)
   10f96:	c399                	beqz	a5,10f9c <_vfprintf_r+0x142>
   10f98:	08e79663          	bne	a5,a4,11024 <_vfprintf_r+0x1ca>
   10f9c:	40940b3b          	subw	s6,s0,s1
   10fa0:	020b0f63          	beqz	s6,10fde <_vfprintf_r+0x184>
   10fa4:	67d2                	ld	a5,272(sp)
   10fa6:	009bb023          	sd	s1,0(s7)
   10faa:	016bb423          	sd	s6,8(s7)
   10fae:	97da                	add	a5,a5,s6
   10fb0:	ea3e                	sd	a5,272(sp)
   10fb2:	10812783          	lw	a5,264(sp)
   10fb6:	0bc1                	addi	s7,s7,16
   10fb8:	0017871b          	addiw	a4,a5,1
   10fbc:	10e12423          	sw	a4,264(sp)
   10fc0:	479d                	li	a5,7
   10fc2:	00e7da63          	ble	a4,a5,10fd6 <_vfprintf_r+0x17c>
   10fc6:	0210                	addi	a2,sp,256
   10fc8:	85ca                	mv	a1,s2
   10fca:	854e                	mv	a0,s3
   10fcc:	400060ef          	jal	ra,173cc <__sprint_r>
   10fd0:	52051c63          	bnez	a0,11508 <_vfprintf_r+0x6ae>
   10fd4:	8bd6                	mv	s7,s5
   10fd6:	57c2                	lw	a5,48(sp)
   10fd8:	016787bb          	addw	a5,a5,s6
   10fdc:	f83e                	sd	a5,48(sp)
   10fde:	00044783          	lbu	a5,0(s0)
   10fe2:	e399                	bnez	a5,10fe8 <_vfprintf_r+0x18e>
   10fe4:	4200106f          	j	12404 <_vfprintf_r+0x15aa>
   10fe8:	00140793          	addi	a5,s0,1
   10fec:	0c0107a3          	sb	zero,207(sp)
   10ff0:	5d7d                	li	s10,-1
   10ff2:	f402                	sd	zero,40(sp)
   10ff4:	4401                	li	s0,0
   10ff6:	05a00d93          	li	s11,90
   10ffa:	4ca9                	li	s9,10
   10ffc:	0007cb03          	lbu	s6,0(a5)
   11000:	00178713          	addi	a4,a5,1
   11004:	ec3a                	sd	a4,24(sp)
   11006:	46a5                	li	a3,9
   11008:	02a00613          	li	a2,42
   1100c:	fe0b079b          	addiw	a5,s6,-32
   11010:	0007871b          	sext.w	a4,a5
   11014:	3cedebe3          	bltu	s11,a4,11bea <_vfprintf_r+0xd90>
   11018:	770a                	ld	a4,160(sp)
   1101a:	1782                	slli	a5,a5,0x20
   1101c:	83f9                	srli	a5,a5,0x1e
   1101e:	97ba                	add	a5,a5,a4
   11020:	439c                	lw	a5,0(a5)
   11022:	8782                	jr	a5
   11024:	0405                	addi	s0,s0,1
   11026:	b7b5                	j	10f92 <_vfprintf_r+0x138>
   11028:	0001b7b7          	lui	a5,0x1b
   1102c:	85878793          	addi	a5,a5,-1960 # 1a858 <zeroes.4413+0x80>
   11030:	f4be                	sd	a5,104(sp)
   11032:	008c0793          	addi	a5,s8,8
   11036:	fc3e                	sd	a5,56(sp)
   11038:	02047793          	andi	a5,s0,32
   1103c:	280780e3          	beqz	a5,11abc <_vfprintf_r+0xc62>
   11040:	000c3c03          	ld	s8,0(s8)
   11044:	00147793          	andi	a5,s0,1
   11048:	cf81                	beqz	a5,11060 <_vfprintf_r+0x206>
   1104a:	000c0b63          	beqz	s8,11060 <_vfprintf_r+0x206>
   1104e:	03000793          	li	a5,48
   11052:	00246413          	ori	s0,s0,2
   11056:	0cf10823          	sb	a5,208(sp)
   1105a:	0d6108a3          	sb	s6,209(sp)
   1105e:	2401                	sext.w	s0,s0
   11060:	bff47413          	andi	s0,s0,-1025
   11064:	2401                	sext.w	s0,s0
   11066:	4789                	li	a5,2
   11068:	1510006f          	j	119b8 <_vfprintf_r+0xb5e>
   1106c:	854e                	mv	a0,s3
   1106e:	00004097          	auipc	ra,0x4
   11072:	898080e7          	jalr	-1896(ra) # 14906 <_localeconv_r>
   11076:	651c                	ld	a5,8(a0)
   11078:	853e                	mv	a0,a5
   1107a:	ecbe                	sd	a5,88(sp)
   1107c:	dcbff0ef          	jal	ra,10e46 <strlen>
   11080:	e4aa                	sd	a0,72(sp)
   11082:	854e                	mv	a0,s3
   11084:	00004097          	auipc	ra,0x4
   11088:	882080e7          	jalr	-1918(ra) # 14906 <_localeconv_r>
   1108c:	691c                	ld	a5,16(a0)
   1108e:	e03e                	sd	a5,0(sp)
   11090:	67a6                	ld	a5,72(sp)
   11092:	c38d                	beqz	a5,110b4 <_vfprintf_r+0x25a>
   11094:	6782                	ld	a5,0(sp)
   11096:	cf99                	beqz	a5,110b4 <_vfprintf_r+0x25a>
   11098:	0007c783          	lbu	a5,0(a5)
   1109c:	cf81                	beqz	a5,110b4 <_vfprintf_r+0x25a>
   1109e:	40046413          	ori	s0,s0,1024
   110a2:	2401                	sext.w	s0,s0
   110a4:	a801                	j	110b4 <_vfprintf_r+0x25a>
   110a6:	0cf14783          	lbu	a5,207(sp)
   110aa:	e789                	bnez	a5,110b4 <_vfprintf_r+0x25a>
   110ac:	02000793          	li	a5,32
   110b0:	0cf107a3          	sb	a5,207(sp)
   110b4:	67e2                	ld	a5,24(sp)
   110b6:	b799                	j	10ffc <_vfprintf_r+0x1a2>
   110b8:	00146413          	ori	s0,s0,1
   110bc:	b7dd                	j	110a2 <_vfprintf_r+0x248>
   110be:	000c2783          	lw	a5,0(s8)
   110c2:	0c21                	addi	s8,s8,8
   110c4:	f43e                	sd	a5,40(sp)
   110c6:	fe07d7e3          	bgez	a5,110b4 <_vfprintf_r+0x25a>
   110ca:	57a2                	lw	a5,40(sp)
   110cc:	40f007bb          	negw	a5,a5
   110d0:	f43e                	sd	a5,40(sp)
   110d2:	00446413          	ori	s0,s0,4
   110d6:	b7f1                	j	110a2 <_vfprintf_r+0x248>
   110d8:	02b00793          	li	a5,43
   110dc:	bfd1                	j	110b0 <_vfprintf_r+0x256>
   110de:	6762                	ld	a4,24(sp)
   110e0:	67e2                	ld	a5,24(sp)
   110e2:	00074b03          	lbu	s6,0(a4)
   110e6:	0785                	addi	a5,a5,1
   110e8:	02cb1c63          	bne	s6,a2,11120 <_vfprintf_r+0x2c6>
   110ec:	000c2e03          	lw	t3,0(s8)
   110f0:	008c0713          	addi	a4,s8,8
   110f4:	000e5363          	bgez	t3,110fa <_vfprintf_r+0x2a0>
   110f8:	5e7d                	li	t3,-1
   110fa:	000e0d1b          	sext.w	s10,t3
   110fe:	8c3a                	mv	s8,a4
   11100:	ec3e                	sd	a5,24(sp)
   11102:	bf4d                	j	110b4 <_vfprintf_r+0x25a>
   11104:	03ac8e3b          	mulw	t3,s9,s10
   11108:	0785                	addi	a5,a5,1
   1110a:	fff7cb03          	lbu	s6,-1(a5)
   1110e:	00ee0d3b          	addw	s10,t3,a4
   11112:	fd0b059b          	addiw	a1,s6,-48
   11116:	872e                	mv	a4,a1
   11118:	feb6f6e3          	bleu	a1,a3,11104 <_vfprintf_r+0x2aa>
   1111c:	ec3e                	sd	a5,24(sp)
   1111e:	b5fd                	j	1100c <_vfprintf_r+0x1b2>
   11120:	4d01                	li	s10,0
   11122:	bfc5                	j	11112 <_vfprintf_r+0x2b8>
   11124:	08046413          	ori	s0,s0,128
   11128:	bfad                	j	110a2 <_vfprintf_r+0x248>
   1112a:	67e2                	ld	a5,24(sp)
   1112c:	f402                	sd	zero,40(sp)
   1112e:	5722                	lw	a4,40(sp)
   11130:	fd0b0b1b          	addiw	s6,s6,-48
   11134:	0785                	addi	a5,a5,1
   11136:	02ec873b          	mulw	a4,s9,a4
   1113a:	00eb073b          	addw	a4,s6,a4
   1113e:	fff7cb03          	lbu	s6,-1(a5)
   11142:	f43a                	sd	a4,40(sp)
   11144:	fd0b071b          	addiw	a4,s6,-48
   11148:	fee6f3e3          	bleu	a4,a3,1112e <_vfprintf_r+0x2d4>
   1114c:	bfc1                	j	1111c <_vfprintf_r+0x2c2>
   1114e:	00846413          	ori	s0,s0,8
   11152:	bf81                	j	110a2 <_vfprintf_r+0x248>
   11154:	67e2                	ld	a5,24(sp)
   11156:	0007c703          	lbu	a4,0(a5)
   1115a:	06800793          	li	a5,104
   1115e:	00f71863          	bne	a4,a5,1116e <_vfprintf_r+0x314>
   11162:	67e2                	ld	a5,24(sp)
   11164:	20046413          	ori	s0,s0,512
   11168:	0785                	addi	a5,a5,1
   1116a:	ec3e                	sd	a5,24(sp)
   1116c:	bf1d                	j	110a2 <_vfprintf_r+0x248>
   1116e:	04046413          	ori	s0,s0,64
   11172:	bf05                	j	110a2 <_vfprintf_r+0x248>
   11174:	67e2                	ld	a5,24(sp)
   11176:	0007c703          	lbu	a4,0(a5)
   1117a:	06c00793          	li	a5,108
   1117e:	00f71863          	bne	a4,a5,1118e <_vfprintf_r+0x334>
   11182:	67e2                	ld	a5,24(sp)
   11184:	0785                	addi	a5,a5,1
   11186:	ec3e                	sd	a5,24(sp)
   11188:	02046413          	ori	s0,s0,32
   1118c:	bf19                	j	110a2 <_vfprintf_r+0x248>
   1118e:	01046413          	ori	s0,s0,16
   11192:	bf01                	j	110a2 <_vfprintf_r+0x248>
   11194:	008c0793          	addi	a5,s8,8
   11198:	fc3e                	sd	a5,56(sp)
   1119a:	000c2783          	lw	a5,0(s8)
   1119e:	0c0107a3          	sb	zero,207(sp)
   111a2:	10f10c23          	sb	a5,280(sp)
   111a6:	4c01                	li	s8,0
   111a8:	4d05                	li	s10,1
   111aa:	4701                	li	a4,0
   111ac:	e402                	sd	zero,8(sp)
   111ae:	4c81                	li	s9,0
   111b0:	4d81                	li	s11,0
   111b2:	0a24                	addi	s1,sp,280
   111b4:	86ba                	mv	a3,a4
   111b6:	01a75363          	ble	s10,a4,111bc <_vfprintf_r+0x362>
   111ba:	86ea                	mv	a3,s10
   111bc:	0cf14603          	lbu	a2,207(sp)
   111c0:	0006879b          	sext.w	a5,a3
   111c4:	e0be                	sd	a5,64(sp)
   111c6:	c601                	beqz	a2,111ce <_vfprintf_r+0x374>
   111c8:	0016879b          	addiw	a5,a3,1
   111cc:	e0be                	sd	a5,64(sp)
   111ce:	00247693          	andi	a3,s0,2
   111d2:	0006879b          	sext.w	a5,a3
   111d6:	f8be                	sd	a5,112(sp)
   111d8:	c781                	beqz	a5,111e0 <_vfprintf_r+0x386>
   111da:	4786                	lw	a5,64(sp)
   111dc:	2789                	addiw	a5,a5,2
   111de:	e0be                	sd	a5,64(sp)
   111e0:	08447793          	andi	a5,s0,132
   111e4:	fcbe                	sd	a5,120(sp)
   111e6:	efa9                	bnez	a5,11240 <_vfprintf_r+0x3e6>
   111e8:	57a2                	lw	a5,40(sp)
   111ea:	4686                	lw	a3,64(sp)
   111ec:	40d786bb          	subw	a3,a5,a3
   111f0:	04d05863          	blez	a3,11240 <_vfprintf_r+0x3e6>
   111f4:	67e9                	lui	a5,0x1a
   111f6:	48c1                	li	a7,16
   111f8:	7c878813          	addi	a6,a5,1992 # 1a7c8 <blanks.4412>
   111fc:	4e9d                	li	t4,7
   111fe:	10812583          	lw	a1,264(sp)
   11202:	010bb023          	sd	a6,0(s7)
   11206:	6652                	ld	a2,272(sp)
   11208:	0015851b          	addiw	a0,a1,1
   1120c:	85aa                	mv	a1,a0
   1120e:	010b8f13          	addi	t5,s7,16
   11212:	1ed8c5e3          	blt	a7,a3,11bfc <_vfprintf_r+0xda2>
   11216:	00dbb423          	sd	a3,8(s7)
   1121a:	96b2                	add	a3,a3,a2
   1121c:	ea36                	sd	a3,272(sp)
   1121e:	10a12423          	sw	a0,264(sp)
   11222:	469d                	li	a3,7
   11224:	8bfa                	mv	s7,t5
   11226:	00a6dd63          	ble	a0,a3,11240 <_vfprintf_r+0x3e6>
   1122a:	0210                	addi	a2,sp,256
   1122c:	85ca                	mv	a1,s2
   1122e:	854e                	mv	a0,s3
   11230:	e13a                	sd	a4,128(sp)
   11232:	19a060ef          	jal	ra,173cc <__sprint_r>
   11236:	c119                	beqz	a0,1123c <_vfprintf_r+0x3e2>
   11238:	1860106f          	j	123be <_vfprintf_r+0x1564>
   1123c:	670a                	ld	a4,128(sp)
   1123e:	8bd6                	mv	s7,s5
   11240:	0cf14683          	lbu	a3,207(sp)
   11244:	c2a1                	beqz	a3,11284 <_vfprintf_r+0x42a>
   11246:	0cf10693          	addi	a3,sp,207
   1124a:	00dbb023          	sd	a3,0(s7)
   1124e:	4685                	li	a3,1
   11250:	00dbb423          	sd	a3,8(s7)
   11254:	66d2                	ld	a3,272(sp)
   11256:	0bc1                	addi	s7,s7,16
   11258:	0685                	addi	a3,a3,1
   1125a:	ea36                	sd	a3,272(sp)
   1125c:	10812683          	lw	a3,264(sp)
   11260:	0016861b          	addiw	a2,a3,1
   11264:	10c12423          	sw	a2,264(sp)
   11268:	469d                	li	a3,7
   1126a:	00c6dd63          	ble	a2,a3,11284 <_vfprintf_r+0x42a>
   1126e:	0210                	addi	a2,sp,256
   11270:	85ca                	mv	a1,s2
   11272:	854e                	mv	a0,s3
   11274:	e13a                	sd	a4,128(sp)
   11276:	156060ef          	jal	ra,173cc <__sprint_r>
   1127a:	c119                	beqz	a0,11280 <_vfprintf_r+0x426>
   1127c:	1420106f          	j	123be <_vfprintf_r+0x1564>
   11280:	670a                	ld	a4,128(sp)
   11282:	8bd6                	mv	s7,s5
   11284:	77c6                	ld	a5,112(sp)
   11286:	cf9d                	beqz	a5,112c4 <_vfprintf_r+0x46a>
   11288:	0994                	addi	a3,sp,208
   1128a:	00dbb023          	sd	a3,0(s7)
   1128e:	4689                	li	a3,2
   11290:	00dbb423          	sd	a3,8(s7)
   11294:	66d2                	ld	a3,272(sp)
   11296:	0bc1                	addi	s7,s7,16
   11298:	0689                	addi	a3,a3,2
   1129a:	ea36                	sd	a3,272(sp)
   1129c:	10812683          	lw	a3,264(sp)
   112a0:	0016861b          	addiw	a2,a3,1
   112a4:	10c12423          	sw	a2,264(sp)
   112a8:	469d                	li	a3,7
   112aa:	00c6dd63          	ble	a2,a3,112c4 <_vfprintf_r+0x46a>
   112ae:	0210                	addi	a2,sp,256
   112b0:	85ca                	mv	a1,s2
   112b2:	854e                	mv	a0,s3
   112b4:	f8ba                	sd	a4,112(sp)
   112b6:	116060ef          	jal	ra,173cc <__sprint_r>
   112ba:	c119                	beqz	a0,112c0 <_vfprintf_r+0x466>
   112bc:	1020106f          	j	123be <_vfprintf_r+0x1564>
   112c0:	7746                	ld	a4,112(sp)
   112c2:	8bd6                	mv	s7,s5
   112c4:	77e6                	ld	a5,120(sp)
   112c6:	08000693          	li	a3,128
   112ca:	04d79c63          	bne	a5,a3,11322 <_vfprintf_r+0x4c8>
   112ce:	57a2                	lw	a5,40(sp)
   112d0:	4686                	lw	a3,64(sp)
   112d2:	40d786bb          	subw	a3,a5,a3
   112d6:	04d05663          	blez	a3,11322 <_vfprintf_r+0x4c8>
   112da:	4841                	li	a6,16
   112dc:	489d                	li	a7,7
   112de:	10812583          	lw	a1,264(sp)
   112e2:	67c2                	ld	a5,16(sp)
   112e4:	6652                	ld	a2,272(sp)
   112e6:	0015851b          	addiw	a0,a1,1
   112ea:	00fbb023          	sd	a5,0(s7)
   112ee:	85aa                	mv	a1,a0
   112f0:	010b8e93          	addi	t4,s7,16
   112f4:	14d842e3          	blt	a6,a3,11c38 <_vfprintf_r+0xdde>
   112f8:	00dbb423          	sd	a3,8(s7)
   112fc:	96b2                	add	a3,a3,a2
   112fe:	ea36                	sd	a3,272(sp)
   11300:	10a12423          	sw	a0,264(sp)
   11304:	469d                	li	a3,7
   11306:	8bf6                	mv	s7,t4
   11308:	00a6dd63          	ble	a0,a3,11322 <_vfprintf_r+0x4c8>
   1130c:	0210                	addi	a2,sp,256
   1130e:	85ca                	mv	a1,s2
   11310:	854e                	mv	a0,s3
   11312:	f8ba                	sd	a4,112(sp)
   11314:	0b8060ef          	jal	ra,173cc <__sprint_r>
   11318:	c119                	beqz	a0,1131e <_vfprintf_r+0x4c4>
   1131a:	0a40106f          	j	123be <_vfprintf_r+0x1564>
   1131e:	7746                	ld	a4,112(sp)
   11320:	8bd6                	mv	s7,s5
   11322:	41a7073b          	subw	a4,a4,s10
   11326:	04e05463          	blez	a4,1136e <_vfprintf_r+0x514>
   1132a:	4841                	li	a6,16
   1132c:	489d                	li	a7,7
   1132e:	10812603          	lw	a2,264(sp)
   11332:	67c2                	ld	a5,16(sp)
   11334:	66d2                	ld	a3,272(sp)
   11336:	0016059b          	addiw	a1,a2,1
   1133a:	00fbb023          	sd	a5,0(s7)
   1133e:	862e                	mv	a2,a1
   11340:	010b8513          	addi	a0,s7,16
   11344:	12e846e3          	blt	a6,a4,11c70 <_vfprintf_r+0xe16>
   11348:	00ebb423          	sd	a4,8(s7)
   1134c:	9736                	add	a4,a4,a3
   1134e:	ea3a                	sd	a4,272(sp)
   11350:	10b12423          	sw	a1,264(sp)
   11354:	471d                	li	a4,7
   11356:	8baa                	mv	s7,a0
   11358:	00b75b63          	ble	a1,a4,1136e <_vfprintf_r+0x514>
   1135c:	0210                	addi	a2,sp,256
   1135e:	85ca                	mv	a1,s2
   11360:	854e                	mv	a0,s3
   11362:	06a060ef          	jal	ra,173cc <__sprint_r>
   11366:	c119                	beqz	a0,1136c <_vfprintf_r+0x512>
   11368:	0560106f          	j	123be <_vfprintf_r+0x1564>
   1136c:	8bd6                	mv	s7,s5
   1136e:	10047693          	andi	a3,s0,256
   11372:	6752                	ld	a4,272(sp)
   11374:	120698e3          	bnez	a3,11ca4 <_vfprintf_r+0xe4a>
   11378:	10812783          	lw	a5,264(sp)
   1137c:	00ed0e33          	add	t3,s10,a4
   11380:	009bb023          	sd	s1,0(s7)
   11384:	0017871b          	addiw	a4,a5,1
   11388:	01abb423          	sd	s10,8(s7)
   1138c:	ea72                	sd	t3,272(sp)
   1138e:	10e12423          	sw	a4,264(sp)
   11392:	479d                	li	a5,7
   11394:	0bc1                	addi	s7,s7,16
   11396:	1ee7d1e3          	ble	a4,a5,11d78 <_vfprintf_r+0xf1e>
   1139a:	0210                	addi	a2,sp,256
   1139c:	85ca                	mv	a1,s2
   1139e:	854e                	mv	a0,s3
   113a0:	02c060ef          	jal	ra,173cc <__sprint_r>
   113a4:	c119                	beqz	a0,113aa <_vfprintf_r+0x550>
   113a6:	0180106f          	j	123be <_vfprintf_r+0x1564>
   113aa:	8bd6                	mv	s7,s5
   113ac:	1cd0006f          	j	11d78 <_vfprintf_r+0xf1e>
   113b0:	01046413          	ori	s0,s0,16
   113b4:	2401                	sext.w	s0,s0
   113b6:	008c0793          	addi	a5,s8,8
   113ba:	fc3e                	sd	a5,56(sp)
   113bc:	02047793          	andi	a5,s0,32
   113c0:	cb85                	beqz	a5,113f0 <_vfprintf_r+0x596>
   113c2:	000c3c03          	ld	s8,0(s8)
   113c6:	000c5863          	bgez	s8,113d6 <_vfprintf_r+0x57c>
   113ca:	02d00793          	li	a5,45
   113ce:	41800c33          	neg	s8,s8
   113d2:	0cf107a3          	sb	a5,207(sp)
   113d6:	57fd                	li	a5,-1
   113d8:	70fd1c63          	bne	s10,a5,11af0 <_vfprintf_r+0xc96>
   113dc:	47a5                	li	a5,9
   113de:	7787e763          	bltu	a5,s8,11b4c <_vfprintf_r+0xcf2>
   113e2:	030c0c1b          	addiw	s8,s8,48
   113e6:	17810da3          	sb	s8,379(sp)
   113ea:	17b10493          	addi	s1,sp,379
   113ee:	a791                	j	11b32 <_vfprintf_r+0xcd8>
   113f0:	01047793          	andi	a5,s0,16
   113f4:	f7f9                	bnez	a5,113c2 <_vfprintf_r+0x568>
   113f6:	04047793          	andi	a5,s0,64
   113fa:	c781                	beqz	a5,11402 <_vfprintf_r+0x5a8>
   113fc:	000c1c03          	lh	s8,0(s8)
   11400:	b7d9                	j	113c6 <_vfprintf_r+0x56c>
   11402:	20047793          	andi	a5,s0,512
   11406:	c781                	beqz	a5,1140e <_vfprintf_r+0x5b4>
   11408:	000c0c03          	lb	s8,0(s8)
   1140c:	bf6d                	j	113c6 <_vfprintf_r+0x56c>
   1140e:	000c2c03          	lw	s8,0(s8)
   11412:	bf55                	j	113c6 <_vfprintf_r+0x56c>
   11414:	00847793          	andi	a5,s0,8
   11418:	cfb9                	beqz	a5,11476 <_vfprintf_r+0x61c>
   1141a:	0c3d                	addi	s8,s8,15
   1141c:	ff0c7c13          	andi	s8,s8,-16
   11420:	010c0793          	addi	a5,s8,16
   11424:	fc3e                	sd	a5,56(sp)
   11426:	000c3783          	ld	a5,0(s8)
   1142a:	f9be                	sd	a5,240(sp)
   1142c:	008c3783          	ld	a5,8(s8)
   11430:	fdbe                	sd	a5,248(sp)
   11432:	1988                	addi	a0,sp,240
   11434:	494030ef          	jal	ra,148c8 <_ldcheck>
   11438:	cdaa                	sw	a0,216(sp)
   1143a:	4789                	li	a5,2
   1143c:	04f51c63          	bne	a0,a5,11494 <_vfprintf_r+0x63a>
   11440:	754e                	ld	a0,240(sp)
   11442:	75ee                	ld	a1,248(sp)
   11444:	4601                	li	a2,0
   11446:	4681                	li	a3,0
   11448:	595070ef          	jal	ra,191dc <__letf2>
   1144c:	00055663          	bgez	a0,11458 <_vfprintf_r+0x5fe>
   11450:	02d00793          	li	a5,45
   11454:	0cf107a3          	sb	a5,207(sp)
   11458:	04700793          	li	a5,71
   1145c:	0367c763          	blt	a5,s6,1148a <_vfprintf_r+0x630>
   11460:	0001b4b7          	lui	s1,0x1b
   11464:	82048493          	addi	s1,s1,-2016 # 1a820 <zeroes.4413+0x48>
   11468:	f7f47413          	andi	s0,s0,-129
   1146c:	2401                	sext.w	s0,s0
   1146e:	4c01                	li	s8,0
   11470:	4d0d                	li	s10,3
   11472:	4701                	li	a4,0
   11474:	a5e9                	j	11b3e <_vfprintf_r+0xce4>
   11476:	000c3507          	fld	fa0,0(s8)
   1147a:	008c0793          	addi	a5,s8,8
   1147e:	fc3e                	sd	a5,56(sp)
   11480:	5bf080ef          	jal	ra,1a23e <__extenddftf2>
   11484:	f9aa                	sd	a0,240(sp)
   11486:	fdae                	sd	a1,248(sp)
   11488:	b76d                	j	11432 <_vfprintf_r+0x5d8>
   1148a:	0001b4b7          	lui	s1,0x1b
   1148e:	82848493          	addi	s1,s1,-2008 # 1a828 <zeroes.4413+0x50>
   11492:	bfd9                	j	11468 <_vfprintf_r+0x60e>
   11494:	4785                	li	a5,1
   11496:	02f51063          	bne	a0,a5,114b6 <_vfprintf_r+0x65c>
   1149a:	04700793          	li	a5,71
   1149e:	0167c763          	blt	a5,s6,114ac <_vfprintf_r+0x652>
   114a2:	0001b4b7          	lui	s1,0x1b
   114a6:	83048493          	addi	s1,s1,-2000 # 1a830 <zeroes.4413+0x58>
   114aa:	bf7d                	j	11468 <_vfprintf_r+0x60e>
   114ac:	0001b4b7          	lui	s1,0x1b
   114b0:	83848493          	addi	s1,s1,-1992 # 1a838 <zeroes.4413+0x60>
   114b4:	bf55                	j	11468 <_vfprintf_r+0x60e>
   114b6:	fdfb7c93          	andi	s9,s6,-33
   114ba:	04100793          	li	a5,65
   114be:	04fc9c63          	bne	s9,a5,11516 <_vfprintf_r+0x6bc>
   114c2:	03000793          	li	a5,48
   114c6:	0cf10823          	sb	a5,208(sp)
   114ca:	06100713          	li	a4,97
   114ce:	05800793          	li	a5,88
   114d2:	00eb1463          	bne	s6,a4,114da <_vfprintf_r+0x680>
   114d6:	07800793          	li	a5,120
   114da:	0cf108a3          	sb	a5,209(sp)
   114de:	00246413          	ori	s0,s0,2
   114e2:	06300793          	li	a5,99
   114e6:	2401                	sext.w	s0,s0
   114e8:	19a7d063          	ble	s10,a5,11668 <_vfprintf_r+0x80e>
   114ec:	001d059b          	addiw	a1,s10,1
   114f0:	854e                	mv	a0,s3
   114f2:	ab2ff0ef          	jal	ra,107a4 <_malloc_r>
   114f6:	84aa                	mv	s1,a0
   114f8:	16051b63          	bnez	a0,1166e <_vfprintf_r+0x814>
   114fc:	01095783          	lhu	a5,16(s2)
   11500:	0407e793          	ori	a5,a5,64
   11504:	00f91823          	sh	a5,16(s2)
   11508:	01095783          	lhu	a5,16(s2)
   1150c:	0407f793          	andi	a5,a5,64
   11510:	a00782e3          	beqz	a5,10f14 <_vfprintf_r+0xba>
   11514:	b499                	j	10f5a <_vfprintf_r+0x100>
   11516:	57fd                	li	a5,-1
   11518:	14fd0d63          	beq	s10,a5,11672 <_vfprintf_r+0x818>
   1151c:	04700793          	li	a5,71
   11520:	4c01                	li	s8,0
   11522:	00fc9463          	bne	s9,a5,1152a <_vfprintf_r+0x6d0>
   11526:	140d0963          	beqz	s10,11678 <_vfprintf_r+0x81e>
   1152a:	10046793          	ori	a5,s0,256
   1152e:	7a6e                	ld	s4,248(sp)
   11530:	2781                	sext.w	a5,a5
   11532:	e0be                	sd	a5,64(sp)
   11534:	e102                	sd	zero,128(sp)
   11536:	7ece                	ld	t4,240(sp)
   11538:	000a5963          	bgez	s4,1154a <_vfprintf_r+0x6f0>
   1153c:	57fd                	li	a5,-1
   1153e:	17fe                	slli	a5,a5,0x3f
   11540:	00fa4a33          	xor	s4,s4,a5
   11544:	02d00793          	li	a5,45
   11548:	e13e                	sd	a5,128(sp)
   1154a:	04100793          	li	a5,65
   1154e:	24fc9b63          	bne	s9,a5,117a4 <_vfprintf_r+0x94a>
   11552:	8576                	mv	a0,t4
   11554:	85d2                	mv	a1,s4
   11556:	5df080ef          	jal	ra,1a334 <__trunctfdf2>
   1155a:	09a8                	addi	a0,sp,216
   1155c:	5de040ef          	jal	ra,15b3a <frexp>
   11560:	4df080ef          	jal	ra,1a23e <__extenddftf2>
   11564:	0001a7b7          	lui	a5,0x1a
   11568:	7f078793          	addi	a5,a5,2032 # 1a7f0 <zeroes.4413+0x18>
   1156c:	6390                	ld	a2,0(a5)
   1156e:	6794                	ld	a3,8(a5)
   11570:	533070ef          	jal	ra,192a2 <__multf3>
   11574:	4601                	li	a2,0
   11576:	4681                	li	a3,0
   11578:	e52a                	sd	a0,136(sp)
   1157a:	8dae                	mv	s11,a1
   1157c:	2f5070ef          	jal	ra,19070 <__eqtf2>
   11580:	e119                	bnez	a0,11586 <_vfprintf_r+0x72c>
   11582:	4785                	li	a5,1
   11584:	cdbe                	sw	a5,216(sp)
   11586:	06100793          	li	a5,97
   1158a:	0efb1a63          	bne	s6,a5,1167e <_vfprintf_r+0x824>
   1158e:	0001b7b7          	lui	a5,0x1b
   11592:	84078793          	addi	a5,a5,-1984 # 1a840 <zeroes.4413+0x68>
   11596:	0001b6b7          	lui	a3,0x1b
   1159a:	80068693          	addi	a3,a3,-2048 # 1a800 <zeroes.4413+0x28>
   1159e:	6298                	ld	a4,0(a3)
   115a0:	e43e                	sd	a5,8(sp)
   115a2:	8a26                	mv	s4,s1
   115a4:	e93a                	sd	a4,144(sp)
   115a6:	6698                	ld	a4,8(a3)
   115a8:	fffd079b          	addiw	a5,s10,-1
   115ac:	ed3a                	sd	a4,152(sp)
   115ae:	664a                	ld	a2,144(sp)
   115b0:	66ea                	ld	a3,152(sp)
   115b2:	652a                	ld	a0,136(sp)
   115b4:	85ee                	mv	a1,s11
   115b6:	f53e                	sd	a5,168(sp)
   115b8:	4eb070ef          	jal	ra,192a2 <__multf3>
   115bc:	8daa                	mv	s11,a0
   115be:	f8ae                	sd	a1,112(sp)
   115c0:	357080ef          	jal	ra,1a116 <__fixtfsi>
   115c4:	0005079b          	sext.w	a5,a0
   115c8:	fcbe                	sd	a5,120(sp)
   115ca:	3e1080ef          	jal	ra,1a1aa <__floatsitf>
   115ce:	7746                	ld	a4,112(sp)
   115d0:	86ae                	mv	a3,a1
   115d2:	862a                	mv	a2,a0
   115d4:	85ba                	mv	a1,a4
   115d6:	856e                	mv	a0,s11
   115d8:	31e080ef          	jal	ra,198f6 <__subtf3>
   115dc:	67a2                	ld	a5,8(sp)
   115de:	7766                	ld	a4,120(sp)
   115e0:	0a05                	addi	s4,s4,1
   115e2:	e52a                	sd	a0,136(sp)
   115e4:	00e786b3          	add	a3,a5,a4
   115e8:	77aa                	ld	a5,168(sp)
   115ea:	0006c683          	lbu	a3,0(a3)
   115ee:	88aa                	mv	a7,a0
   115f0:	0007871b          	sext.w	a4,a5
   115f4:	f8ba                	sd	a4,112(sp)
   115f6:	feda0fa3          	sb	a3,-1(s4)
   115fa:	577d                	li	a4,-1
   115fc:	882e                	mv	a6,a1
   115fe:	8dae                	mv	s11,a1
   11600:	08e78463          	beq	a5,a4,11688 <_vfprintf_r+0x82e>
   11604:	37fd                	addiw	a5,a5,-1
   11606:	4601                	li	a2,0
   11608:	4681                	li	a3,0
   1160a:	f53e                	sd	a5,168(sp)
   1160c:	fd2e                	sd	a1,184(sp)
   1160e:	f92a                	sd	a0,176(sp)
   11610:	261070ef          	jal	ra,19070 <__eqtf2>
   11614:	77aa                	ld	a5,168(sp)
   11616:	78ca                	ld	a7,176(sp)
   11618:	786a                	ld	a6,184(sp)
   1161a:	f951                	bnez	a0,115ae <_vfprintf_r+0x754>
   1161c:	0001b7b7          	lui	a5,0x1b
   11620:	81078793          	addi	a5,a5,-2032 # 1a810 <zeroes.4413+0x38>
   11624:	0007bd83          	ld	s11,0(a5)
   11628:	679c                	ld	a5,8(a5)
   1162a:	8546                	mv	a0,a7
   1162c:	866e                	mv	a2,s11
   1162e:	86be                	mv	a3,a5
   11630:	85c2                	mv	a1,a6
   11632:	ed3e                	sd	a5,152(sp)
   11634:	e946                	sd	a7,144(sp)
   11636:	e542                	sd	a6,136(sp)
   11638:	2df070ef          	jal	ra,19116 <__getf2>
   1163c:	04a04c63          	bgtz	a0,11694 <_vfprintf_r+0x83a>
   11640:	67ea                	ld	a5,152(sp)
   11642:	68ca                	ld	a7,144(sp)
   11644:	682a                	ld	a6,136(sp)
   11646:	866e                	mv	a2,s11
   11648:	86be                	mv	a3,a5
   1164a:	8546                	mv	a0,a7
   1164c:	85c2                	mv	a1,a6
   1164e:	223070ef          	jal	ra,19070 <__eqtf2>
   11652:	cd15                	beqz	a0,1168e <_vfprintf_r+0x834>
   11654:	57c6                	lw	a5,112(sp)
   11656:	03000693          	li	a3,48
   1165a:	0607c463          	bltz	a5,116c2 <_vfprintf_r+0x868>
   1165e:	0a05                	addi	s4,s4,1
   11660:	feda0fa3          	sb	a3,-1(s4)
   11664:	37fd                	addiw	a5,a5,-1
   11666:	bfd5                	j	1165a <_vfprintf_r+0x800>
   11668:	4c01                	li	s8,0
   1166a:	0a24                	addi	s1,sp,280
   1166c:	bd7d                	j	1152a <_vfprintf_r+0x6d0>
   1166e:	8c2a                	mv	s8,a0
   11670:	bd6d                	j	1152a <_vfprintf_r+0x6d0>
   11672:	4c01                	li	s8,0
   11674:	4d19                	li	s10,6
   11676:	bd55                	j	1152a <_vfprintf_r+0x6d0>
   11678:	8c6a                	mv	s8,s10
   1167a:	4d05                	li	s10,1
   1167c:	b57d                	j	1152a <_vfprintf_r+0x6d0>
   1167e:	0001b7b7          	lui	a5,0x1b
   11682:	85878793          	addi	a5,a5,-1960 # 1a858 <zeroes.4413+0x80>
   11686:	bf01                	j	11596 <_vfprintf_r+0x73c>
   11688:	57fd                	li	a5,-1
   1168a:	f8be                	sd	a5,112(sp)
   1168c:	bf41                	j	1161c <_vfprintf_r+0x7c2>
   1168e:	77e6                	ld	a5,120(sp)
   11690:	8b85                	andi	a5,a5,1
   11692:	d3e9                	beqz	a5,11654 <_vfprintf_r+0x7fa>
   11694:	67a2                	ld	a5,8(sp)
   11696:	f5d2                	sd	s4,232(sp)
   11698:	03000593          	li	a1,48
   1169c:	00f7c603          	lbu	a2,15(a5)
   116a0:	76ae                	ld	a3,232(sp)
   116a2:	fff68793          	addi	a5,a3,-1
   116a6:	f5be                	sd	a5,232(sp)
   116a8:	fff6c783          	lbu	a5,-1(a3)
   116ac:	0ec78563          	beq	a5,a2,11796 <_vfprintf_r+0x93c>
   116b0:	03900613          	li	a2,57
   116b4:	0ec79463          	bne	a5,a2,1179c <_vfprintf_r+0x942>
   116b8:	67a2                	ld	a5,8(sp)
   116ba:	00a7c783          	lbu	a5,10(a5)
   116be:	fef68fa3          	sb	a5,-1(a3)
   116c2:	04700713          	li	a4,71
   116c6:	409a0a3b          	subw	s4,s4,s1
   116ca:	4dee                	lw	s11,216(sp)
   116cc:	18ec9663          	bne	s9,a4,11858 <_vfprintf_r+0x9fe>
   116d0:	5775                	li	a4,-3
   116d2:	00edc463          	blt	s11,a4,116da <_vfprintf_r+0x880>
   116d6:	1fbd5663          	ble	s11,s10,118c2 <_vfprintf_r+0xa68>
   116da:	3b79                	addiw	s6,s6,-2
   116dc:	fffd869b          	addiw	a3,s11,-1
   116e0:	cdb6                	sw	a3,216(sp)
   116e2:	fdfb7613          	andi	a2,s6,-33
   116e6:	04100513          	li	a0,65
   116ea:	0ffb7713          	andi	a4,s6,255
   116ee:	4581                	li	a1,0
   116f0:	00a61663          	bne	a2,a0,116fc <_vfprintf_r+0x8a2>
   116f4:	273d                	addiw	a4,a4,15
   116f6:	0ff77713          	andi	a4,a4,255
   116fa:	4585                	li	a1,1
   116fc:	0ee10023          	sb	a4,224(sp)
   11700:	02b00793          	li	a5,43
   11704:	0006d763          	bgez	a3,11712 <_vfprintf_r+0x8b8>
   11708:	4685                	li	a3,1
   1170a:	41b686bb          	subw	a3,a3,s11
   1170e:	02d00793          	li	a5,45
   11712:	0ef100a3          	sb	a5,225(sp)
   11716:	47a5                	li	a5,9
   11718:	16d7dc63          	ble	a3,a5,11890 <_vfprintf_r+0xa36>
   1171c:	0ef10713          	addi	a4,sp,239
   11720:	853a                	mv	a0,a4
   11722:	45a9                	li	a1,10
   11724:	4825                	li	a6,9
   11726:	02b6e7bb          	remw	a5,a3,a1
   1172a:	fff70613          	addi	a2,a4,-1
   1172e:	02b6c6bb          	divw	a3,a3,a1
   11732:	0307879b          	addiw	a5,a5,48
   11736:	fef70fa3          	sb	a5,-1(a4)
   1173a:	14d84263          	blt	a6,a3,1187e <_vfprintf_r+0xa24>
   1173e:	0306879b          	addiw	a5,a3,48
   11742:	fef60fa3          	sb	a5,-1(a2)
   11746:	1779                	addi	a4,a4,-2
   11748:	0e210613          	addi	a2,sp,226
   1174c:	12a76b63          	bltu	a4,a0,11882 <_vfprintf_r+0xa28>
   11750:	119c                	addi	a5,sp,224
   11752:	40f607bb          	subw	a5,a2,a5
   11756:	f0be                	sd	a5,96(sp)
   11758:	5786                	lw	a5,96(sp)
   1175a:	4705                	li	a4,1
   1175c:	01478d3b          	addw	s10,a5,s4
   11760:	87ea                	mv	a5,s10
   11762:	01474563          	blt	a4,s4,1176c <_vfprintf_r+0x912>
   11766:	00147713          	andi	a4,s0,1
   1176a:	c701                	beqz	a4,11772 <_vfprintf_r+0x918>
   1176c:	5702                	lw	a4,32(sp)
   1176e:	00e78d3b          	addw	s10,a5,a4
   11772:	bff47413          	andi	s0,s0,-1025
   11776:	2401                	sext.w	s0,s0
   11778:	10046793          	ori	a5,s0,256
   1177c:	e0be                	sd	a5,64(sp)
   1177e:	e402                	sd	zero,8(sp)
   11780:	4c81                	li	s9,0
   11782:	4d81                	li	s11,0
   11784:	678a                	ld	a5,128(sp)
   11786:	c789                	beqz	a5,11790 <_vfprintf_r+0x936>
   11788:	02d00713          	li	a4,45
   1178c:	0ce107a3          	sb	a4,207(sp)
   11790:	6406                	ld	s0,64(sp)
   11792:	4701                	li	a4,0
   11794:	b405                	j	111b4 <_vfprintf_r+0x35a>
   11796:	feb68fa3          	sb	a1,-1(a3)
   1179a:	b719                	j	116a0 <_vfprintf_r+0x846>
   1179c:	2785                	addiw	a5,a5,1
   1179e:	0ff7f793          	andi	a5,a5,255
   117a2:	bf31                	j	116be <_vfprintf_r+0x864>
   117a4:	04600793          	li	a5,70
   117a8:	00fc8b63          	beq	s9,a5,117be <_vfprintf_r+0x964>
   117ac:	04500793          	li	a5,69
   117b0:	8dea                	mv	s11,s10
   117b2:	00fc9463          	bne	s9,a5,117ba <_vfprintf_r+0x960>
   117b6:	001d0d9b          	addiw	s11,s10,1
   117ba:	4689                	li	a3,2
   117bc:	a019                	j	117c2 <_vfprintf_r+0x968>
   117be:	8dea                	mv	s11,s10
   117c0:	468d                	li	a3,3
   117c2:	09bc                	addi	a5,sp,216
   117c4:	85f6                	mv	a1,t4
   117c6:	0e810893          	addi	a7,sp,232
   117ca:	0dc10813          	addi	a6,sp,220
   117ce:	876e                	mv	a4,s11
   117d0:	8652                	mv	a2,s4
   117d2:	854e                	mv	a0,s3
   117d4:	e476                	sd	t4,8(sp)
   117d6:	00002097          	auipc	ra,0x2
   117da:	74a080e7          	jalr	1866(ra) # 13f20 <_ldtoa_r>
   117de:	04700793          	li	a5,71
   117e2:	84aa                	mv	s1,a0
   117e4:	6ea2                	ld	t4,8(sp)
   117e6:	00fc9563          	bne	s9,a5,117f0 <_vfprintf_r+0x996>
   117ea:	00147793          	andi	a5,s0,1
   117ee:	cbb1                	beqz	a5,11842 <_vfprintf_r+0x9e8>
   117f0:	04600713          	li	a4,70
   117f4:	01b487b3          	add	a5,s1,s11
   117f8:	02ec9963          	bne	s9,a4,1182a <_vfprintf_r+0x9d0>
   117fc:	0004c683          	lbu	a3,0(s1)
   11800:	03000713          	li	a4,48
   11804:	02e69163          	bne	a3,a4,11826 <_vfprintf_r+0x9cc>
   11808:	8576                	mv	a0,t4
   1180a:	4601                	li	a2,0
   1180c:	4681                	li	a3,0
   1180e:	85d2                	mv	a1,s4
   11810:	f8be                	sd	a5,112(sp)
   11812:	e476                	sd	t4,8(sp)
   11814:	05d070ef          	jal	ra,19070 <__eqtf2>
   11818:	6ea2                	ld	t4,8(sp)
   1181a:	77c6                	ld	a5,112(sp)
   1181c:	c509                	beqz	a0,11826 <_vfprintf_r+0x9cc>
   1181e:	4705                	li	a4,1
   11820:	41b70dbb          	subw	s11,a4,s11
   11824:	cdee                	sw	s11,216(sp)
   11826:	476e                	lw	a4,216(sp)
   11828:	97ba                	add	a5,a5,a4
   1182a:	4681                	li	a3,0
   1182c:	4601                	li	a2,0
   1182e:	8576                	mv	a0,t4
   11830:	85d2                	mv	a1,s4
   11832:	e43e                	sd	a5,8(sp)
   11834:	03d070ef          	jal	ra,19070 <__eqtf2>
   11838:	67a2                	ld	a5,8(sp)
   1183a:	03000693          	li	a3,48
   1183e:	e909                	bnez	a0,11850 <_vfprintf_r+0x9f6>
   11840:	f5be                	sd	a5,232(sp)
   11842:	7a2e                	ld	s4,232(sp)
   11844:	bdbd                	j	116c2 <_vfprintf_r+0x868>
   11846:	00170613          	addi	a2,a4,1
   1184a:	f5b2                	sd	a2,232(sp)
   1184c:	00d70023          	sb	a3,0(a4)
   11850:	772e                	ld	a4,232(sp)
   11852:	fef76ae3          	bltu	a4,a5,11846 <_vfprintf_r+0x9ec>
   11856:	b7f5                	j	11842 <_vfprintf_r+0x9e8>
   11858:	04600713          	li	a4,70
   1185c:	e8ec90e3          	bne	s9,a4,116dc <_vfprintf_r+0x882>
   11860:	05b05863          	blez	s11,118b0 <_vfprintf_r+0xa56>
   11864:	000d1563          	bnez	s10,1186e <_vfprintf_r+0xa14>
   11868:	00147713          	andi	a4,s0,1
   1186c:	cf59                	beqz	a4,1190a <_vfprintf_r+0xab0>
   1186e:	5782                	lw	a5,32(sp)
   11870:	01b7873b          	addw	a4,a5,s11
   11874:	01a70d3b          	addw	s10,a4,s10
   11878:	06600b13          	li	s6,102
   1187c:	a895                	j	118f0 <_vfprintf_r+0xa96>
   1187e:	8732                	mv	a4,a2
   11880:	b55d                	j	11726 <_vfprintf_r+0x8cc>
   11882:	0705                	addi	a4,a4,1
   11884:	fff74783          	lbu	a5,-1(a4)
   11888:	0605                	addi	a2,a2,1
   1188a:	fef60fa3          	sb	a5,-1(a2)
   1188e:	bd7d                	j	1174c <_vfprintf_r+0x8f2>
   11890:	0e210713          	addi	a4,sp,226
   11894:	e599                	bnez	a1,118a2 <_vfprintf_r+0xa48>
   11896:	03000793          	li	a5,48
   1189a:	0ef10123          	sb	a5,226(sp)
   1189e:	0e310713          	addi	a4,sp,227
   118a2:	0306879b          	addiw	a5,a3,48
   118a6:	00170613          	addi	a2,a4,1
   118aa:	00f70023          	sb	a5,0(a4)
   118ae:	b54d                	j	11750 <_vfprintf_r+0x8f6>
   118b0:	000d1563          	bnez	s10,118ba <_vfprintf_r+0xa60>
   118b4:	00147713          	andi	a4,s0,1
   118b8:	cb39                	beqz	a4,1190e <_vfprintf_r+0xab4>
   118ba:	5782                	lw	a5,32(sp)
   118bc:	0017871b          	addiw	a4,a5,1
   118c0:	bf55                	j	11874 <_vfprintf_r+0xa1a>
   118c2:	014dcc63          	blt	s11,s4,118da <_vfprintf_r+0xa80>
   118c6:	00147713          	andi	a4,s0,1
   118ca:	8d6e                	mv	s10,s11
   118cc:	c701                	beqz	a4,118d4 <_vfprintf_r+0xa7a>
   118ce:	5782                	lw	a5,32(sp)
   118d0:	01b78d3b          	addw	s10,a5,s11
   118d4:	06700b13          	li	s6,103
   118d8:	a821                	j	118f0 <_vfprintf_r+0xa96>
   118da:	5782                	lw	a5,32(sp)
   118dc:	06700b13          	li	s6,103
   118e0:	01478d3b          	addw	s10,a5,s4
   118e4:	01b04663          	bgtz	s11,118f0 <_vfprintf_r+0xa96>
   118e8:	41bd0e3b          	subw	t3,s10,s11
   118ec:	001e0d1b          	addiw	s10,t3,1
   118f0:	40047413          	andi	s0,s0,1024
   118f4:	00040c9b          	sext.w	s9,s0
   118f8:	e402                	sd	zero,8(sp)
   118fa:	e80c85e3          	beqz	s9,11784 <_vfprintf_r+0x92a>
   118fe:	4c81                	li	s9,0
   11900:	e9b052e3          	blez	s11,11784 <_vfprintf_r+0x92a>
   11904:	0ff00693          	li	a3,255
   11908:	a01d                	j	1192e <_vfprintf_r+0xad4>
   1190a:	8d6e                	mv	s10,s11
   1190c:	b7b5                	j	11878 <_vfprintf_r+0xa1e>
   1190e:	06600b13          	li	s6,102
   11912:	4d05                	li	s10,1
   11914:	bff1                	j	118f0 <_vfprintf_r+0xa96>
   11916:	2701                	sext.w	a4,a4
   11918:	03b75063          	ble	s11,a4,11938 <_vfprintf_r+0xade>
   1191c:	6782                	ld	a5,0(sp)
   1191e:	40ed8dbb          	subw	s11,s11,a4
   11922:	0017c703          	lbu	a4,1(a5)
   11926:	c315                	beqz	a4,1194a <_vfprintf_r+0xaf0>
   11928:	0785                	addi	a5,a5,1
   1192a:	2c85                	addiw	s9,s9,1
   1192c:	e03e                	sd	a5,0(sp)
   1192e:	6782                	ld	a5,0(sp)
   11930:	0007c703          	lbu	a4,0(a5)
   11934:	fed711e3          	bne	a4,a3,11916 <_vfprintf_r+0xabc>
   11938:	47a2                	lw	a5,8(sp)
   1193a:	00fc873b          	addw	a4,s9,a5
   1193e:	47a6                	lw	a5,72(sp)
   11940:	02f7073b          	mulw	a4,a4,a5
   11944:	01a70d3b          	addw	s10,a4,s10
   11948:	bd35                	j	11784 <_vfprintf_r+0x92a>
   1194a:	47a2                	lw	a5,8(sp)
   1194c:	2785                	addiw	a5,a5,1
   1194e:	e43e                	sd	a5,8(sp)
   11950:	bff9                	j	1192e <_vfprintf_r+0xad4>
   11952:	008c0713          	addi	a4,s8,8
   11956:	fc3a                	sd	a4,56(sp)
   11958:	02047713          	andi	a4,s0,32
   1195c:	000c3783          	ld	a5,0(s8)
   11960:	c719                	beqz	a4,1196e <_vfprintf_r+0xb14>
   11962:	7742                	ld	a4,48(sp)
   11964:	e398                	sd	a4,0(a5)
   11966:	7c62                	ld	s8,56(sp)
   11968:	64e2                	ld	s1,24(sp)
   1196a:	e22ff06f          	j	10f8c <_vfprintf_r+0x132>
   1196e:	01047713          	andi	a4,s0,16
   11972:	fb65                	bnez	a4,11962 <_vfprintf_r+0xb08>
   11974:	04047713          	andi	a4,s0,64
   11978:	c711                	beqz	a4,11984 <_vfprintf_r+0xb2a>
   1197a:	03015703          	lhu	a4,48(sp)
   1197e:	00e79023          	sh	a4,0(a5)
   11982:	b7d5                	j	11966 <_vfprintf_r+0xb0c>
   11984:	20047413          	andi	s0,s0,512
   11988:	c411                	beqz	s0,11994 <_vfprintf_r+0xb3a>
   1198a:	03014703          	lbu	a4,48(sp)
   1198e:	00e78023          	sb	a4,0(a5)
   11992:	bfd1                	j	11966 <_vfprintf_r+0xb0c>
   11994:	5742                	lw	a4,48(sp)
   11996:	c398                	sw	a4,0(a5)
   11998:	b7f9                	j	11966 <_vfprintf_r+0xb0c>
   1199a:	01046413          	ori	s0,s0,16
   1199e:	2401                	sext.w	s0,s0
   119a0:	008c0793          	addi	a5,s8,8
   119a4:	fc3e                	sd	a5,56(sp)
   119a6:	02047793          	andi	a5,s0,32
   119aa:	cb85                	beqz	a5,119da <_vfprintf_r+0xb80>
   119ac:	000c3c03          	ld	s8,0(s8)
   119b0:	bff47413          	andi	s0,s0,-1025
   119b4:	2401                	sext.w	s0,s0
   119b6:	4781                	li	a5,0
   119b8:	0c0107a3          	sb	zero,207(sp)
   119bc:	577d                	li	a4,-1
   119be:	12ed0c63          	beq	s10,a4,11af6 <_vfprintf_r+0xc9c>
   119c2:	8722                	mv	a4,s0
   119c4:	f7f47413          	andi	s0,s0,-129
   119c8:	2401                	sext.w	s0,s0
   119ca:	120c1663          	bnez	s8,11af6 <_vfprintf_r+0xc9c>
   119ce:	200d0463          	beqz	s10,11bd6 <_vfprintf_r+0xd7c>
   119d2:	4705                	li	a4,1
   119d4:	12e79463          	bne	a5,a4,11afc <_vfprintf_r+0xca2>
   119d8:	b429                	j	113e2 <_vfprintf_r+0x588>
   119da:	01047793          	andi	a5,s0,16
   119de:	f7f9                	bnez	a5,119ac <_vfprintf_r+0xb52>
   119e0:	04047793          	andi	a5,s0,64
   119e4:	000c2c03          	lw	s8,0(s8)
   119e8:	c789                	beqz	a5,119f2 <_vfprintf_r+0xb98>
   119ea:	1c42                	slli	s8,s8,0x30
   119ec:	030c5c13          	srli	s8,s8,0x30
   119f0:	b7c1                	j	119b0 <_vfprintf_r+0xb56>
   119f2:	20047793          	andi	a5,s0,512
   119f6:	c781                	beqz	a5,119fe <_vfprintf_r+0xba4>
   119f8:	0ffc7c13          	andi	s8,s8,255
   119fc:	bf55                	j	119b0 <_vfprintf_r+0xb56>
   119fe:	1c02                	slli	s8,s8,0x20
   11a00:	020c5c13          	srli	s8,s8,0x20
   11a04:	b775                	j	119b0 <_vfprintf_r+0xb56>
   11a06:	008c0793          	addi	a5,s8,8
   11a0a:	fc3e                	sd	a5,56(sp)
   11a0c:	77e1                	lui	a5,0xffff8
   11a0e:	8307c793          	xori	a5,a5,-2000
   11a12:	0cf11823          	sh	a5,208(sp)
   11a16:	0001b7b7          	lui	a5,0x1b
   11a1a:	84078793          	addi	a5,a5,-1984 # 1a840 <zeroes.4413+0x68>
   11a1e:	00246413          	ori	s0,s0,2
   11a22:	f4be                	sd	a5,104(sp)
   11a24:	000c3c03          	ld	s8,0(s8)
   11a28:	2401                	sext.w	s0,s0
   11a2a:	4789                	li	a5,2
   11a2c:	07800b13          	li	s6,120
   11a30:	b761                	j	119b8 <_vfprintf_r+0xb5e>
   11a32:	008c0793          	addi	a5,s8,8
   11a36:	fc3e                	sd	a5,56(sp)
   11a38:	0c0107a3          	sb	zero,207(sp)
   11a3c:	57fd                	li	a5,-1
   11a3e:	000c3483          	ld	s1,0(s8)
   11a42:	00fd0e63          	beq	s10,a5,11a5e <_vfprintf_r+0xc04>
   11a46:	866a                	mv	a2,s10
   11a48:	4581                	li	a1,0
   11a4a:	8526                	mv	a0,s1
   11a4c:	0d8030ef          	jal	ra,14b24 <memchr>
   11a50:	8c2a                	mv	s8,a0
   11a52:	a20500e3          	beqz	a0,11472 <_vfprintf_r+0x618>
   11a56:	40950d3b          	subw	s10,a0,s1
   11a5a:	4c01                	li	s8,0
   11a5c:	bc19                	j	11472 <_vfprintf_r+0x618>
   11a5e:	8526                	mv	a0,s1
   11a60:	be6ff0ef          	jal	ra,10e46 <strlen>
   11a64:	00050d1b          	sext.w	s10,a0
   11a68:	bfcd                	j	11a5a <_vfprintf_r+0xc00>
   11a6a:	01046413          	ori	s0,s0,16
   11a6e:	2401                	sext.w	s0,s0
   11a70:	008c0793          	addi	a5,s8,8
   11a74:	fc3e                	sd	a5,56(sp)
   11a76:	02047793          	andi	a5,s0,32
   11a7a:	c789                	beqz	a5,11a84 <_vfprintf_r+0xc2a>
   11a7c:	000c3c03          	ld	s8,0(s8)
   11a80:	4785                	li	a5,1
   11a82:	bf1d                	j	119b8 <_vfprintf_r+0xb5e>
   11a84:	01047793          	andi	a5,s0,16
   11a88:	fbf5                	bnez	a5,11a7c <_vfprintf_r+0xc22>
   11a8a:	04047793          	andi	a5,s0,64
   11a8e:	000c2c03          	lw	s8,0(s8)
   11a92:	c789                	beqz	a5,11a9c <_vfprintf_r+0xc42>
   11a94:	1c42                	slli	s8,s8,0x30
   11a96:	030c5c13          	srli	s8,s8,0x30
   11a9a:	b7dd                	j	11a80 <_vfprintf_r+0xc26>
   11a9c:	20047793          	andi	a5,s0,512
   11aa0:	c781                	beqz	a5,11aa8 <_vfprintf_r+0xc4e>
   11aa2:	0ffc7c13          	andi	s8,s8,255
   11aa6:	bfe9                	j	11a80 <_vfprintf_r+0xc26>
   11aa8:	1c02                	slli	s8,s8,0x20
   11aaa:	020c5c13          	srli	s8,s8,0x20
   11aae:	bfc9                	j	11a80 <_vfprintf_r+0xc26>
   11ab0:	0001b7b7          	lui	a5,0x1b
   11ab4:	84078793          	addi	a5,a5,-1984 # 1a840 <zeroes.4413+0x68>
   11ab8:	d78ff06f          	j	11030 <_vfprintf_r+0x1d6>
   11abc:	01047793          	andi	a5,s0,16
   11ac0:	d8079063          	bnez	a5,11040 <_vfprintf_r+0x1e6>
   11ac4:	04047793          	andi	a5,s0,64
   11ac8:	000c2c03          	lw	s8,0(s8)
   11acc:	c791                	beqz	a5,11ad8 <_vfprintf_r+0xc7e>
   11ace:	1c42                	slli	s8,s8,0x30
   11ad0:	030c5c13          	srli	s8,s8,0x30
   11ad4:	d70ff06f          	j	11044 <_vfprintf_r+0x1ea>
   11ad8:	20047793          	andi	a5,s0,512
   11adc:	c789                	beqz	a5,11ae6 <_vfprintf_r+0xc8c>
   11ade:	0ffc7c13          	andi	s8,s8,255
   11ae2:	d62ff06f          	j	11044 <_vfprintf_r+0x1ea>
   11ae6:	1c02                	slli	s8,s8,0x20
   11ae8:	020c5c13          	srli	s8,s8,0x20
   11aec:	d58ff06f          	j	11044 <_vfprintf_r+0x1ea>
   11af0:	8722                	mv	a4,s0
   11af2:	4785                	li	a5,1
   11af4:	bdc1                	j	119c4 <_vfprintf_r+0xb6a>
   11af6:	4705                	li	a4,1
   11af8:	8ee782e3          	beq	a5,a4,113dc <_vfprintf_r+0x582>
   11afc:	4709                	li	a4,2
   11afe:	0ae78d63          	beq	a5,a4,11bb8 <_vfprintf_r+0xd5e>
   11b02:	1afc                	addi	a5,sp,380
   11b04:	007c7713          	andi	a4,s8,7
   11b08:	03070713          	addi	a4,a4,48
   11b0c:	fee78fa3          	sb	a4,-1(a5)
   11b10:	003c5c13          	srli	s8,s8,0x3
   11b14:	fff78493          	addi	s1,a5,-1
   11b18:	020c1863          	bnez	s8,11b48 <_vfprintf_r+0xcee>
   11b1c:	00147693          	andi	a3,s0,1
   11b20:	ca89                	beqz	a3,11b32 <_vfprintf_r+0xcd8>
   11b22:	03000693          	li	a3,48
   11b26:	00d70663          	beq	a4,a3,11b32 <_vfprintf_r+0xcd8>
   11b2a:	fed48fa3          	sb	a3,-1(s1)
   11b2e:	ffe78493          	addi	s1,a5,-2
   11b32:	17c10e13          	addi	t3,sp,380
   11b36:	876a                	mv	a4,s10
   11b38:	4c01                	li	s8,0
   11b3a:	409e0d3b          	subw	s10,t3,s1
   11b3e:	e402                	sd	zero,8(sp)
   11b40:	4c81                	li	s9,0
   11b42:	4d81                	li	s11,0
   11b44:	e70ff06f          	j	111b4 <_vfprintf_r+0x35a>
   11b48:	87a6                	mv	a5,s1
   11b4a:	bf6d                	j	11b04 <_vfprintf_r+0xcaa>
   11b4c:	40047c93          	andi	s9,s0,1024
   11b50:	4a01                	li	s4,0
   11b52:	1afc                	addi	a5,sp,380
   11b54:	4da9                	li	s11,10
   11b56:	2c81                	sext.w	s9,s9
   11b58:	0ff00693          	li	a3,255
   11b5c:	4825                	li	a6,9
   11b5e:	03bc7733          	remu	a4,s8,s11
   11b62:	fff78493          	addi	s1,a5,-1
   11b66:	2a05                	addiw	s4,s4,1
   11b68:	0307071b          	addiw	a4,a4,48
   11b6c:	fee78fa3          	sb	a4,-1(a5)
   11b70:	020c8e63          	beqz	s9,11bac <_vfprintf_r+0xd52>
   11b74:	6782                	ld	a5,0(sp)
   11b76:	0007c783          	lbu	a5,0(a5)
   11b7a:	02fa1963          	bne	s4,a5,11bac <_vfprintf_r+0xd52>
   11b7e:	02d78763          	beq	a5,a3,11bac <_vfprintf_r+0xd52>
   11b82:	03887563          	bleu	s8,a6,11bac <_vfprintf_r+0xd52>
   11b86:	67a6                	ld	a5,72(sp)
   11b88:	65e6                	ld	a1,88(sp)
   11b8a:	e0c2                	sd	a6,64(sp)
   11b8c:	8c9d                	sub	s1,s1,a5
   11b8e:	863e                	mv	a2,a5
   11b90:	8526                	mv	a0,s1
   11b92:	e436                	sd	a3,8(sp)
   11b94:	282040ef          	jal	ra,15e16 <strncpy>
   11b98:	6782                	ld	a5,0(sp)
   11b9a:	4a01                	li	s4,0
   11b9c:	66a2                	ld	a3,8(sp)
   11b9e:	0017c783          	lbu	a5,1(a5)
   11ba2:	6806                	ld	a6,64(sp)
   11ba4:	c781                	beqz	a5,11bac <_vfprintf_r+0xd52>
   11ba6:	6782                	ld	a5,0(sp)
   11ba8:	0785                	addi	a5,a5,1
   11baa:	e03e                	sd	a5,0(sp)
   11bac:	03bc5c33          	divu	s8,s8,s11
   11bb0:	f80c01e3          	beqz	s8,11b32 <_vfprintf_r+0xcd8>
   11bb4:	87a6                	mv	a5,s1
   11bb6:	b765                	j	11b5e <_vfprintf_r+0xd04>
   11bb8:	1ae4                	addi	s1,sp,380
   11bba:	7726                	ld	a4,104(sp)
   11bbc:	00fc7793          	andi	a5,s8,15
   11bc0:	14fd                	addi	s1,s1,-1
   11bc2:	97ba                	add	a5,a5,a4
   11bc4:	0007c783          	lbu	a5,0(a5)
   11bc8:	004c5c13          	srli	s8,s8,0x4
   11bcc:	00f48023          	sb	a5,0(s1)
   11bd0:	fe0c15e3          	bnez	s8,11bba <_vfprintf_r+0xd60>
   11bd4:	bfb9                	j	11b32 <_vfprintf_r+0xcd8>
   11bd6:	1ae4                	addi	s1,sp,380
   11bd8:	ffa9                	bnez	a5,11b32 <_vfprintf_r+0xcd8>
   11bda:	8b05                	andi	a4,a4,1
   11bdc:	db39                	beqz	a4,11b32 <_vfprintf_r+0xcd8>
   11bde:	03000793          	li	a5,48
   11be2:	16f10da3          	sb	a5,379(sp)
   11be6:	805ff06f          	j	113ea <_vfprintf_r+0x590>
   11bea:	000b0de3          	beqz	s6,12404 <_vfprintf_r+0x15aa>
   11bee:	11610c23          	sb	s6,280(sp)
   11bf2:	0c0107a3          	sb	zero,207(sp)
   11bf6:	fc62                	sd	s8,56(sp)
   11bf8:	daeff06f          	j	111a6 <_vfprintf_r+0x34c>
   11bfc:	0641                	addi	a2,a2,16
   11bfe:	011bb423          	sd	a7,8(s7)
   11c02:	ea32                	sd	a2,272(sp)
   11c04:	10b12423          	sw	a1,264(sp)
   11c08:	02aed463          	ble	a0,t4,11c30 <_vfprintf_r+0xdd6>
   11c0c:	0210                	addi	a2,sp,256
   11c0e:	85ca                	mv	a1,s2
   11c10:	854e                	mv	a0,s3
   11c12:	f576                	sd	t4,168(sp)
   11c14:	ed42                	sd	a6,152(sp)
   11c16:	e946                	sd	a7,144(sp)
   11c18:	e53a                	sd	a4,136(sp)
   11c1a:	e136                	sd	a3,128(sp)
   11c1c:	7b0050ef          	jal	ra,173cc <__sprint_r>
   11c20:	78051f63          	bnez	a0,123be <_vfprintf_r+0x1564>
   11c24:	7eaa                	ld	t4,168(sp)
   11c26:	686a                	ld	a6,152(sp)
   11c28:	68ca                	ld	a7,144(sp)
   11c2a:	672a                	ld	a4,136(sp)
   11c2c:	668a                	ld	a3,128(sp)
   11c2e:	8f56                	mv	t5,s5
   11c30:	36c1                	addiw	a3,a3,-16
   11c32:	8bfa                	mv	s7,t5
   11c34:	dcaff06f          	j	111fe <_vfprintf_r+0x3a4>
   11c38:	0641                	addi	a2,a2,16
   11c3a:	010bb423          	sd	a6,8(s7)
   11c3e:	ea32                	sd	a2,272(sp)
   11c40:	10b12423          	sw	a1,264(sp)
   11c44:	02a8d263          	ble	a0,a7,11c68 <_vfprintf_r+0xe0e>
   11c48:	0210                	addi	a2,sp,256
   11c4a:	85ca                	mv	a1,s2
   11c4c:	854e                	mv	a0,s3
   11c4e:	e546                	sd	a7,136(sp)
   11c50:	e142                	sd	a6,128(sp)
   11c52:	fcba                	sd	a4,120(sp)
   11c54:	f8b6                	sd	a3,112(sp)
   11c56:	776050ef          	jal	ra,173cc <__sprint_r>
   11c5a:	76051263          	bnez	a0,123be <_vfprintf_r+0x1564>
   11c5e:	68aa                	ld	a7,136(sp)
   11c60:	680a                	ld	a6,128(sp)
   11c62:	7766                	ld	a4,120(sp)
   11c64:	76c6                	ld	a3,112(sp)
   11c66:	8ed6                	mv	t4,s5
   11c68:	36c1                	addiw	a3,a3,-16
   11c6a:	8bf6                	mv	s7,t4
   11c6c:	e72ff06f          	j	112de <_vfprintf_r+0x484>
   11c70:	06c1                	addi	a3,a3,16
   11c72:	010bb423          	sd	a6,8(s7)
   11c76:	ea36                	sd	a3,272(sp)
   11c78:	10c12423          	sw	a2,264(sp)
   11c7c:	02b8d063          	ble	a1,a7,11c9c <_vfprintf_r+0xe42>
   11c80:	0210                	addi	a2,sp,256
   11c82:	85ca                	mv	a1,s2
   11c84:	854e                	mv	a0,s3
   11c86:	e146                	sd	a7,128(sp)
   11c88:	fcc2                	sd	a6,120(sp)
   11c8a:	f8ba                	sd	a4,112(sp)
   11c8c:	740050ef          	jal	ra,173cc <__sprint_r>
   11c90:	72051763          	bnez	a0,123be <_vfprintf_r+0x1564>
   11c94:	688a                	ld	a7,128(sp)
   11c96:	7866                	ld	a6,120(sp)
   11c98:	7746                	ld	a4,112(sp)
   11c9a:	8556                	mv	a0,s5
   11c9c:	3741                	addiw	a4,a4,-16
   11c9e:	8baa                	mv	s7,a0
   11ca0:	e8eff06f          	j	1132e <_vfprintf_r+0x4d4>
   11ca4:	06500693          	li	a3,101
   11ca8:	5766d963          	ble	s6,a3,1221a <_vfprintf_r+0x13c0>
   11cac:	754e                	ld	a0,240(sp)
   11cae:	75ee                	ld	a1,248(sp)
   11cb0:	4601                	li	a2,0
   11cb2:	4681                	li	a3,0
   11cb4:	f8ba                	sd	a4,112(sp)
   11cb6:	3ba070ef          	jal	ra,19070 <__eqtf2>
   11cba:	7746                	ld	a4,112(sp)
   11cbc:	10051f63          	bnez	a0,11dda <_vfprintf_r+0xf80>
   11cc0:	0001b7b7          	lui	a5,0x1b
   11cc4:	87078793          	addi	a5,a5,-1936 # 1a870 <zeroes.4413+0x98>
   11cc8:	00fbb023          	sd	a5,0(s7)
   11ccc:	4785                	li	a5,1
   11cce:	00fbb423          	sd	a5,8(s7)
   11cd2:	10812783          	lw	a5,264(sp)
   11cd6:	0705                	addi	a4,a4,1
   11cd8:	ea3a                	sd	a4,272(sp)
   11cda:	0017871b          	addiw	a4,a5,1
   11cde:	10e12423          	sw	a4,264(sp)
   11ce2:	479d                	li	a5,7
   11ce4:	0bc1                	addi	s7,s7,16
   11ce6:	00e7da63          	ble	a4,a5,11cfa <_vfprintf_r+0xea0>
   11cea:	0210                	addi	a2,sp,256
   11cec:	85ca                	mv	a1,s2
   11cee:	854e                	mv	a0,s3
   11cf0:	6dc050ef          	jal	ra,173cc <__sprint_r>
   11cf4:	6c051563          	bnez	a0,123be <_vfprintf_r+0x1564>
   11cf8:	8bd6                	mv	s7,s5
   11cfa:	47ee                	lw	a5,216(sp)
   11cfc:	0147c563          	blt	a5,s4,11d06 <_vfprintf_r+0xeac>
   11d00:	00147793          	andi	a5,s0,1
   11d04:	cbb5                	beqz	a5,11d78 <_vfprintf_r+0xf1e>
   11d06:	67c6                	ld	a5,80(sp)
   11d08:	7702                	ld	a4,32(sp)
   11d0a:	0bc1                	addi	s7,s7,16
   11d0c:	fefbb823          	sd	a5,-16(s7)
   11d10:	7782                	ld	a5,32(sp)
   11d12:	fefbbc23          	sd	a5,-8(s7)
   11d16:	67d2                	ld	a5,272(sp)
   11d18:	97ba                	add	a5,a5,a4
   11d1a:	ea3e                	sd	a5,272(sp)
   11d1c:	10812783          	lw	a5,264(sp)
   11d20:	0017871b          	addiw	a4,a5,1
   11d24:	10e12423          	sw	a4,264(sp)
   11d28:	479d                	li	a5,7
   11d2a:	00e7da63          	ble	a4,a5,11d3e <_vfprintf_r+0xee4>
   11d2e:	0210                	addi	a2,sp,256
   11d30:	85ca                	mv	a1,s2
   11d32:	854e                	mv	a0,s3
   11d34:	698050ef          	jal	ra,173cc <__sprint_r>
   11d38:	68051363          	bnez	a0,123be <_vfprintf_r+0x1564>
   11d3c:	8bd6                	mv	s7,s5
   11d3e:	fffa049b          	addiw	s1,s4,-1
   11d42:	02905b63          	blez	s1,11d78 <_vfprintf_r+0xf1e>
   11d46:	4b41                	li	s6,16
   11d48:	4c9d                	li	s9,7
   11d4a:	10812703          	lw	a4,264(sp)
   11d4e:	67d2                	ld	a5,272(sp)
   11d50:	010b8613          	addi	a2,s7,16
   11d54:	0017069b          	addiw	a3,a4,1
   11d58:	8736                	mv	a4,a3
   11d5a:	049b4a63          	blt	s6,s1,11dae <_vfprintf_r+0xf54>
   11d5e:	6742                	ld	a4,16(sp)
   11d60:	009bb423          	sd	s1,8(s7)
   11d64:	94be                	add	s1,s1,a5
   11d66:	00ebb023          	sd	a4,0(s7)
   11d6a:	ea26                	sd	s1,272(sp)
   11d6c:	10d12423          	sw	a3,264(sp)
   11d70:	479d                	li	a5,7
   11d72:	8bb2                	mv	s7,a2
   11d74:	e2d7c363          	blt	a5,a3,1139a <_vfprintf_r+0x540>
   11d78:	8811                	andi	s0,s0,4
   11d7a:	5e041d63          	bnez	s0,12374 <_vfprintf_r+0x151a>
   11d7e:	7722                	ld	a4,40(sp)
   11d80:	6686                	ld	a3,64(sp)
   11d82:	57a2                	lw	a5,40(sp)
   11d84:	00d75363          	ble	a3,a4,11d8a <_vfprintf_r+0xf30>
   11d88:	4786                	lw	a5,64(sp)
   11d8a:	5742                	lw	a4,48(sp)
   11d8c:	9fb9                	addw	a5,a5,a4
   11d8e:	f83e                	sd	a5,48(sp)
   11d90:	67d2                	ld	a5,272(sp)
   11d92:	cb81                	beqz	a5,11da2 <_vfprintf_r+0xf48>
   11d94:	0210                	addi	a2,sp,256
   11d96:	85ca                	mv	a1,s2
   11d98:	854e                	mv	a0,s3
   11d9a:	632050ef          	jal	ra,173cc <__sprint_r>
   11d9e:	62051063          	bnez	a0,123be <_vfprintf_r+0x1564>
   11da2:	10012423          	sw	zero,264(sp)
   11da6:	640c1863          	bnez	s8,123f6 <_vfprintf_r+0x159c>
   11daa:	8bd6                	mv	s7,s5
   11dac:	be6d                	j	11966 <_vfprintf_r+0xb0c>
   11dae:	65c2                	ld	a1,16(sp)
   11db0:	07c1                	addi	a5,a5,16
   11db2:	016bb423          	sd	s6,8(s7)
   11db6:	00bbb023          	sd	a1,0(s7)
   11dba:	ea3e                	sd	a5,272(sp)
   11dbc:	10e12423          	sw	a4,264(sp)
   11dc0:	00dcda63          	ble	a3,s9,11dd4 <_vfprintf_r+0xf7a>
   11dc4:	0210                	addi	a2,sp,256
   11dc6:	85ca                	mv	a1,s2
   11dc8:	854e                	mv	a0,s3
   11dca:	602050ef          	jal	ra,173cc <__sprint_r>
   11dce:	5e051863          	bnez	a0,123be <_vfprintf_r+0x1564>
   11dd2:	8656                	mv	a2,s5
   11dd4:	34c1                	addiw	s1,s1,-16
   11dd6:	8bb2                	mv	s7,a2
   11dd8:	bf8d                	j	11d4a <_vfprintf_r+0xef0>
   11dda:	46ee                	lw	a3,216(sp)
   11ddc:	12d04063          	bgtz	a3,11efc <_vfprintf_r+0x10a2>
   11de0:	0001b7b7          	lui	a5,0x1b
   11de4:	87078793          	addi	a5,a5,-1936 # 1a870 <zeroes.4413+0x98>
   11de8:	00fbb023          	sd	a5,0(s7)
   11dec:	4785                	li	a5,1
   11dee:	00fbb423          	sd	a5,8(s7)
   11df2:	10812783          	lw	a5,264(sp)
   11df6:	0705                	addi	a4,a4,1
   11df8:	ea3a                	sd	a4,272(sp)
   11dfa:	0017871b          	addiw	a4,a5,1
   11dfe:	10e12423          	sw	a4,264(sp)
   11e02:	479d                	li	a5,7
   11e04:	0bc1                	addi	s7,s7,16
   11e06:	00e7da63          	ble	a4,a5,11e1a <_vfprintf_r+0xfc0>
   11e0a:	0210                	addi	a2,sp,256
   11e0c:	85ca                	mv	a1,s2
   11e0e:	854e                	mv	a0,s3
   11e10:	5bc050ef          	jal	ra,173cc <__sprint_r>
   11e14:	5a051563          	bnez	a0,123be <_vfprintf_r+0x1564>
   11e18:	8bd6                	mv	s7,s5
   11e1a:	47ee                	lw	a5,216(sp)
   11e1c:	e791                	bnez	a5,11e28 <_vfprintf_r+0xfce>
   11e1e:	000a1563          	bnez	s4,11e28 <_vfprintf_r+0xfce>
   11e22:	00147793          	andi	a5,s0,1
   11e26:	dba9                	beqz	a5,11d78 <_vfprintf_r+0xf1e>
   11e28:	67c6                	ld	a5,80(sp)
   11e2a:	7702                	ld	a4,32(sp)
   11e2c:	010b8313          	addi	t1,s7,16
   11e30:	00fbb023          	sd	a5,0(s7)
   11e34:	7782                	ld	a5,32(sp)
   11e36:	00fbb423          	sd	a5,8(s7)
   11e3a:	67d2                	ld	a5,272(sp)
   11e3c:	97ba                	add	a5,a5,a4
   11e3e:	ea3e                	sd	a5,272(sp)
   11e40:	10812783          	lw	a5,264(sp)
   11e44:	0017871b          	addiw	a4,a5,1
   11e48:	10e12423          	sw	a4,264(sp)
   11e4c:	479d                	li	a5,7
   11e4e:	00e7da63          	ble	a4,a5,11e62 <_vfprintf_r+0x1008>
   11e52:	0210                	addi	a2,sp,256
   11e54:	85ca                	mv	a1,s2
   11e56:	854e                	mv	a0,s3
   11e58:	574050ef          	jal	ra,173cc <__sprint_r>
   11e5c:	56051163          	bnez	a0,123be <_vfprintf_r+0x1564>
   11e60:	8356                	mv	t1,s5
   11e62:	4b6e                	lw	s6,216(sp)
   11e64:	040b5363          	bgez	s6,11eaa <_vfprintf_r+0x1050>
   11e68:	41600b3b          	negw	s6,s6
   11e6c:	879a                	mv	a5,t1
   11e6e:	4cc1                	li	s9,16
   11e70:	4d9d                	li	s11,7
   11e72:	10812683          	lw	a3,264(sp)
   11e76:	6752                	ld	a4,272(sp)
   11e78:	0341                	addi	t1,t1,16
   11e7a:	0016861b          	addiw	a2,a3,1
   11e7e:	86b2                	mv	a3,a2
   11e80:	056cc963          	blt	s9,s6,11ed2 <_vfprintf_r+0x1078>
   11e84:	66c2                	ld	a3,16(sp)
   11e86:	0167b423          	sd	s6,8(a5)
   11e8a:	9b3a                	add	s6,s6,a4
   11e8c:	e394                	sd	a3,0(a5)
   11e8e:	ea5a                	sd	s6,272(sp)
   11e90:	10c12423          	sw	a2,264(sp)
   11e94:	479d                	li	a5,7
   11e96:	00c7da63          	ble	a2,a5,11eaa <_vfprintf_r+0x1050>
   11e9a:	0210                	addi	a2,sp,256
   11e9c:	85ca                	mv	a1,s2
   11e9e:	854e                	mv	a0,s3
   11ea0:	52c050ef          	jal	ra,173cc <__sprint_r>
   11ea4:	50051d63          	bnez	a0,123be <_vfprintf_r+0x1564>
   11ea8:	8356                	mv	t1,s5
   11eaa:	67d2                	ld	a5,272(sp)
   11eac:	00933023          	sd	s1,0(t1)
   11eb0:	01433423          	sd	s4,8(t1)
   11eb4:	97d2                	add	a5,a5,s4
   11eb6:	ea3e                	sd	a5,272(sp)
   11eb8:	10812783          	lw	a5,264(sp)
   11ebc:	01030b93          	addi	s7,t1,16
   11ec0:	0017871b          	addiw	a4,a5,1
   11ec4:	10e12423          	sw	a4,264(sp)
   11ec8:	479d                	li	a5,7
   11eca:	eae7d7e3          	ble	a4,a5,11d78 <_vfprintf_r+0xf1e>
   11ece:	cccff06f          	j	1139a <_vfprintf_r+0x540>
   11ed2:	65c2                	ld	a1,16(sp)
   11ed4:	0741                	addi	a4,a4,16
   11ed6:	0197b423          	sd	s9,8(a5)
   11eda:	e38c                	sd	a1,0(a5)
   11edc:	ea3a                	sd	a4,272(sp)
   11ede:	10d12423          	sw	a3,264(sp)
   11ee2:	00cdda63          	ble	a2,s11,11ef6 <_vfprintf_r+0x109c>
   11ee6:	0210                	addi	a2,sp,256
   11ee8:	85ca                	mv	a1,s2
   11eea:	854e                	mv	a0,s3
   11eec:	4e0050ef          	jal	ra,173cc <__sprint_r>
   11ef0:	4c051763          	bnez	a0,123be <_vfprintf_r+0x1564>
   11ef4:	8356                	mv	t1,s5
   11ef6:	3b41                	addiw	s6,s6,-16
   11ef8:	879a                	mv	a5,t1
   11efa:	bfa5                	j	11e72 <_vfprintf_r+0x1018>
   11efc:	86ee                	mv	a3,s11
   11efe:	01ba5363          	ble	s11,s4,11f04 <_vfprintf_r+0x10aa>
   11f02:	86d2                	mv	a3,s4
   11f04:	00068d1b          	sext.w	s10,a3
   11f08:	03a05a63          	blez	s10,11f3c <_vfprintf_r+0x10e2>
   11f0c:	976a                	add	a4,a4,s10
   11f0e:	ea3a                	sd	a4,272(sp)
   11f10:	10812703          	lw	a4,264(sp)
   11f14:	009bb023          	sd	s1,0(s7)
   11f18:	01abb423          	sd	s10,8(s7)
   11f1c:	0017061b          	addiw	a2,a4,1
   11f20:	10c12423          	sw	a2,264(sp)
   11f24:	471d                	li	a4,7
   11f26:	0bc1                	addi	s7,s7,16
   11f28:	00c75a63          	ble	a2,a4,11f3c <_vfprintf_r+0x10e2>
   11f2c:	0210                	addi	a2,sp,256
   11f2e:	85ca                	mv	a1,s2
   11f30:	854e                	mv	a0,s3
   11f32:	49a050ef          	jal	ra,173cc <__sprint_r>
   11f36:	48051463          	bnez	a0,123be <_vfprintf_r+0x1564>
   11f3a:	8bd6                	mv	s7,s5
   11f3c:	8b6a                	mv	s6,s10
   11f3e:	000d5363          	bgez	s10,11f44 <_vfprintf_r+0x10ea>
   11f42:	4b01                	li	s6,0
   11f44:	416d8b3b          	subw	s6,s11,s6
   11f48:	05605363          	blez	s6,11f8e <_vfprintf_r+0x1134>
   11f4c:	4d41                	li	s10,16
   11f4e:	489d                	li	a7,7
   11f50:	10812683          	lw	a3,264(sp)
   11f54:	67c2                	ld	a5,16(sp)
   11f56:	6752                	ld	a4,272(sp)
   11f58:	0016861b          	addiw	a2,a3,1
   11f5c:	00fbb023          	sd	a5,0(s7)
   11f60:	86b2                	mv	a3,a2
   11f62:	010b8593          	addi	a1,s7,16
   11f66:	136d4c63          	blt	s10,s6,1209e <_vfprintf_r+0x1244>
   11f6a:	016bb423          	sd	s6,8(s7)
   11f6e:	9b3a                	add	s6,s6,a4
   11f70:	ea5a                	sd	s6,272(sp)
   11f72:	10c12423          	sw	a2,264(sp)
   11f76:	471d                	li	a4,7
   11f78:	8bae                	mv	s7,a1
   11f7a:	00c75a63          	ble	a2,a4,11f8e <_vfprintf_r+0x1134>
   11f7e:	0210                	addi	a2,sp,256
   11f80:	85ca                	mv	a1,s2
   11f82:	854e                	mv	a0,s3
   11f84:	448050ef          	jal	ra,173cc <__sprint_r>
   11f88:	42051b63          	bnez	a0,123be <_vfprintf_r+0x1564>
   11f8c:	8bd6                	mv	s7,s5
   11f8e:	40047793          	andi	a5,s0,1024
   11f92:	01b48b33          	add	s6,s1,s11
   11f96:	cf99                	beqz	a5,11fb4 <_vfprintf_r+0x115a>
   11f98:	014487b3          	add	a5,s1,s4
   11f9c:	4d1d                	li	s10,7
   11f9e:	8dbe                	mv	s11,a5
   11fa0:	67a2                	ld	a5,8(sp)
   11fa2:	120c9363          	bnez	s9,120c8 <_vfprintf_r+0x126e>
   11fa6:	12079263          	bnez	a5,120ca <_vfprintf_r+0x1270>
   11faa:	014487b3          	add	a5,s1,s4
   11fae:	0167f363          	bleu	s6,a5,11fb4 <_vfprintf_r+0x115a>
   11fb2:	8b3e                	mv	s6,a5
   11fb4:	47ee                	lw	a5,216(sp)
   11fb6:	0147c563          	blt	a5,s4,11fc0 <_vfprintf_r+0x1166>
   11fba:	00147793          	andi	a5,s0,1
   11fbe:	cf8d                	beqz	a5,11ff8 <_vfprintf_r+0x119e>
   11fc0:	67c6                	ld	a5,80(sp)
   11fc2:	7702                	ld	a4,32(sp)
   11fc4:	0bc1                	addi	s7,s7,16
   11fc6:	fefbb823          	sd	a5,-16(s7)
   11fca:	7782                	ld	a5,32(sp)
   11fcc:	fefbbc23          	sd	a5,-8(s7)
   11fd0:	67d2                	ld	a5,272(sp)
   11fd2:	97ba                	add	a5,a5,a4
   11fd4:	ea3e                	sd	a5,272(sp)
   11fd6:	10812783          	lw	a5,264(sp)
   11fda:	0017871b          	addiw	a4,a5,1
   11fde:	10e12423          	sw	a4,264(sp)
   11fe2:	479d                	li	a5,7
   11fe4:	00e7da63          	ble	a4,a5,11ff8 <_vfprintf_r+0x119e>
   11fe8:	0210                	addi	a2,sp,256
   11fea:	85ca                	mv	a1,s2
   11fec:	854e                	mv	a0,s3
   11fee:	3de050ef          	jal	ra,173cc <__sprint_r>
   11ff2:	3c051663          	bnez	a0,123be <_vfprintf_r+0x1564>
   11ff6:	8bd6                	mv	s7,s5
   11ff8:	4cee                	lw	s9,216(sp)
   11ffa:	94d2                	add	s1,s1,s4
   11ffc:	416484bb          	subw	s1,s1,s6
   12000:	419a07bb          	subw	a5,s4,s9
   12004:	8cbe                	mv	s9,a5
   12006:	00f4d463          	ble	a5,s1,1200e <_vfprintf_r+0x11b4>
   1200a:	00048c9b          	sext.w	s9,s1
   1200e:	03905b63          	blez	s9,12044 <_vfprintf_r+0x11ea>
   12012:	67d2                	ld	a5,272(sp)
   12014:	016bb023          	sd	s6,0(s7)
   12018:	019bb423          	sd	s9,8(s7)
   1201c:	97e6                	add	a5,a5,s9
   1201e:	ea3e                	sd	a5,272(sp)
   12020:	10812783          	lw	a5,264(sp)
   12024:	0bc1                	addi	s7,s7,16
   12026:	0017871b          	addiw	a4,a5,1
   1202a:	10e12423          	sw	a4,264(sp)
   1202e:	479d                	li	a5,7
   12030:	00e7da63          	ble	a4,a5,12044 <_vfprintf_r+0x11ea>
   12034:	0210                	addi	a2,sp,256
   12036:	85ca                	mv	a1,s2
   12038:	854e                	mv	a0,s3
   1203a:	392050ef          	jal	ra,173cc <__sprint_r>
   1203e:	38051063          	bnez	a0,123be <_vfprintf_r+0x1564>
   12042:	8bd6                	mv	s7,s5
   12044:	87e6                	mv	a5,s9
   12046:	000cd363          	bgez	s9,1204c <_vfprintf_r+0x11f2>
   1204a:	4781                	li	a5,0
   1204c:	44ee                	lw	s1,216(sp)
   1204e:	409a04bb          	subw	s1,s4,s1
   12052:	9c9d                	subw	s1,s1,a5
   12054:	d29052e3          	blez	s1,11d78 <_vfprintf_r+0xf1e>
   12058:	4b41                	li	s6,16
   1205a:	4c9d                	li	s9,7
   1205c:	10812703          	lw	a4,264(sp)
   12060:	67d2                	ld	a5,272(sp)
   12062:	010b8613          	addi	a2,s7,16
   12066:	0017069b          	addiw	a3,a4,1
   1206a:	8736                	mv	a4,a3
   1206c:	189b4163          	blt	s6,s1,121ee <_vfprintf_r+0x1394>
   12070:	6742                	ld	a4,16(sp)
   12072:	009bb423          	sd	s1,8(s7)
   12076:	94be                	add	s1,s1,a5
   12078:	00ebb023          	sd	a4,0(s7)
   1207c:	ea26                	sd	s1,272(sp)
   1207e:	10d12423          	sw	a3,264(sp)
   12082:	479d                	li	a5,7
   12084:	8bb2                	mv	s7,a2
   12086:	ced7d9e3          	ble	a3,a5,11d78 <_vfprintf_r+0xf1e>
   1208a:	0210                	addi	a2,sp,256
   1208c:	85ca                	mv	a1,s2
   1208e:	854e                	mv	a0,s3
   12090:	33c050ef          	jal	ra,173cc <__sprint_r>
   12094:	32051563          	bnez	a0,123be <_vfprintf_r+0x1564>
   12098:	18010b93          	addi	s7,sp,384
   1209c:	b9f1                	j	11d78 <_vfprintf_r+0xf1e>
   1209e:	0741                	addi	a4,a4,16
   120a0:	01abb423          	sd	s10,8(s7)
   120a4:	ea3a                	sd	a4,272(sp)
   120a6:	10d12423          	sw	a3,264(sp)
   120aa:	00c8dc63          	ble	a2,a7,120c2 <_vfprintf_r+0x1268>
   120ae:	0210                	addi	a2,sp,256
   120b0:	85ca                	mv	a1,s2
   120b2:	854e                	mv	a0,s3
   120b4:	f8c6                	sd	a7,112(sp)
   120b6:	316050ef          	jal	ra,173cc <__sprint_r>
   120ba:	30051263          	bnez	a0,123be <_vfprintf_r+0x1564>
   120be:	78c6                	ld	a7,112(sp)
   120c0:	85d6                	mv	a1,s5
   120c2:	3b41                	addiw	s6,s6,-16
   120c4:	8bae                	mv	s7,a1
   120c6:	b569                	j	11f50 <_vfprintf_r+0x10f6>
   120c8:	c7cd                	beqz	a5,12172 <_vfprintf_r+0x1318>
   120ca:	47a2                	lw	a5,8(sp)
   120cc:	37fd                	addiw	a5,a5,-1
   120ce:	e43e                	sd	a5,8(sp)
   120d0:	67e6                	ld	a5,88(sp)
   120d2:	6726                	ld	a4,72(sp)
   120d4:	0bc1                	addi	s7,s7,16
   120d6:	fefbb823          	sd	a5,-16(s7)
   120da:	67a6                	ld	a5,72(sp)
   120dc:	fefbbc23          	sd	a5,-8(s7)
   120e0:	67d2                	ld	a5,272(sp)
   120e2:	97ba                	add	a5,a5,a4
   120e4:	ea3e                	sd	a5,272(sp)
   120e6:	10812783          	lw	a5,264(sp)
   120ea:	0017871b          	addiw	a4,a5,1
   120ee:	10e12423          	sw	a4,264(sp)
   120f2:	00ed5a63          	ble	a4,s10,12106 <_vfprintf_r+0x12ac>
   120f6:	0210                	addi	a2,sp,256
   120f8:	85ca                	mv	a1,s2
   120fa:	854e                	mv	a0,s3
   120fc:	2d0050ef          	jal	ra,173cc <__sprint_r>
   12100:	2a051f63          	bnez	a0,123be <_vfprintf_r+0x1564>
   12104:	8bd6                	mv	s7,s5
   12106:	6702                	ld	a4,0(sp)
   12108:	416d87bb          	subw	a5,s11,s6
   1210c:	00074703          	lbu	a4,0(a4)
   12110:	00e7d463          	ble	a4,a5,12118 <_vfprintf_r+0x12be>
   12114:	0007871b          	sext.w	a4,a5
   12118:	02e05d63          	blez	a4,12152 <_vfprintf_r+0x12f8>
   1211c:	67d2                	ld	a5,272(sp)
   1211e:	016bb023          	sd	s6,0(s7)
   12122:	00ebb423          	sd	a4,8(s7)
   12126:	97ba                	add	a5,a5,a4
   12128:	ea3e                	sd	a5,272(sp)
   1212a:	10812783          	lw	a5,264(sp)
   1212e:	0bc1                	addi	s7,s7,16
   12130:	0017869b          	addiw	a3,a5,1
   12134:	10d12423          	sw	a3,264(sp)
   12138:	00dd5d63          	ble	a3,s10,12152 <_vfprintf_r+0x12f8>
   1213c:	0210                	addi	a2,sp,256
   1213e:	85ca                	mv	a1,s2
   12140:	854e                	mv	a0,s3
   12142:	f8ba                	sd	a4,112(sp)
   12144:	288050ef          	jal	ra,173cc <__sprint_r>
   12148:	26051b63          	bnez	a0,123be <_vfprintf_r+0x1564>
   1214c:	7746                	ld	a4,112(sp)
   1214e:	18010b93          	addi	s7,sp,384
   12152:	86ba                	mv	a3,a4
   12154:	00075363          	bgez	a4,1215a <_vfprintf_r+0x1300>
   12158:	4681                	li	a3,0
   1215a:	6782                	ld	a5,0(sp)
   1215c:	4841                	li	a6,16
   1215e:	0007c783          	lbu	a5,0(a5)
   12162:	9f95                	subw	a5,a5,a3
   12164:	04f04563          	bgtz	a5,121ae <_vfprintf_r+0x1354>
   12168:	6782                	ld	a5,0(sp)
   1216a:	0007c783          	lbu	a5,0(a5)
   1216e:	9b3e                	add	s6,s6,a5
   12170:	bd05                	j	11fa0 <_vfprintf_r+0x1146>
   12172:	6782                	ld	a5,0(sp)
   12174:	3cfd                	addiw	s9,s9,-1
   12176:	17fd                	addi	a5,a5,-1
   12178:	e03e                	sd	a5,0(sp)
   1217a:	bf99                	j	120d0 <_vfprintf_r+0x1276>
   1217c:	6542                	ld	a0,16(sp)
   1217e:	0741                	addi	a4,a4,16
   12180:	010bb423          	sd	a6,8(s7)
   12184:	00abb023          	sd	a0,0(s7)
   12188:	ea3a                	sd	a4,272(sp)
   1218a:	10d12423          	sw	a3,264(sp)
   1218e:	00cd5e63          	ble	a2,s10,121aa <_vfprintf_r+0x1350>
   12192:	0210                	addi	a2,sp,256
   12194:	85ca                	mv	a1,s2
   12196:	854e                	mv	a0,s3
   12198:	fcc2                	sd	a6,120(sp)
   1219a:	f8be                	sd	a5,112(sp)
   1219c:	230050ef          	jal	ra,173cc <__sprint_r>
   121a0:	20051f63          	bnez	a0,123be <_vfprintf_r+0x1564>
   121a4:	7866                	ld	a6,120(sp)
   121a6:	77c6                	ld	a5,112(sp)
   121a8:	030c                	addi	a1,sp,384
   121aa:	37c1                	addiw	a5,a5,-16
   121ac:	8bae                	mv	s7,a1
   121ae:	10812683          	lw	a3,264(sp)
   121b2:	6752                	ld	a4,272(sp)
   121b4:	010b8593          	addi	a1,s7,16
   121b8:	0016861b          	addiw	a2,a3,1
   121bc:	86b2                	mv	a3,a2
   121be:	faf84fe3          	blt	a6,a5,1217c <_vfprintf_r+0x1322>
   121c2:	66c2                	ld	a3,16(sp)
   121c4:	00fbb423          	sd	a5,8(s7)
   121c8:	97ba                	add	a5,a5,a4
   121ca:	00dbb023          	sd	a3,0(s7)
   121ce:	ea3e                	sd	a5,272(sp)
   121d0:	10c12423          	sw	a2,264(sp)
   121d4:	8bae                	mv	s7,a1
   121d6:	f8cd59e3          	ble	a2,s10,12168 <_vfprintf_r+0x130e>
   121da:	0210                	addi	a2,sp,256
   121dc:	85ca                	mv	a1,s2
   121de:	854e                	mv	a0,s3
   121e0:	1ec050ef          	jal	ra,173cc <__sprint_r>
   121e4:	1c051d63          	bnez	a0,123be <_vfprintf_r+0x1564>
   121e8:	18010b93          	addi	s7,sp,384
   121ec:	bfb5                	j	12168 <_vfprintf_r+0x130e>
   121ee:	65c2                	ld	a1,16(sp)
   121f0:	07c1                	addi	a5,a5,16
   121f2:	016bb423          	sd	s6,8(s7)
   121f6:	00bbb023          	sd	a1,0(s7)
   121fa:	ea3e                	sd	a5,272(sp)
   121fc:	10e12423          	sw	a4,264(sp)
   12200:	00dcda63          	ble	a3,s9,12214 <_vfprintf_r+0x13ba>
   12204:	0210                	addi	a2,sp,256
   12206:	85ca                	mv	a1,s2
   12208:	854e                	mv	a0,s3
   1220a:	1c2050ef          	jal	ra,173cc <__sprint_r>
   1220e:	1a051863          	bnez	a0,123be <_vfprintf_r+0x1564>
   12212:	0310                	addi	a2,sp,384
   12214:	34c1                	addiw	s1,s1,-16
   12216:	8bb2                	mv	s7,a2
   12218:	b591                	j	1205c <_vfprintf_r+0x1202>
   1221a:	10812783          	lw	a5,264(sp)
   1221e:	4605                	li	a2,1
   12220:	009bb023          	sd	s1,0(s7)
   12224:	0017869b          	addiw	a3,a5,1
   12228:	0705                	addi	a4,a4,1
   1222a:	87b6                	mv	a5,a3
   1222c:	010b8c93          	addi	s9,s7,16
   12230:	01464663          	blt	a2,s4,1223c <_vfprintf_r+0x13e2>
   12234:	00147593          	andi	a1,s0,1
   12238:	12058763          	beqz	a1,12366 <_vfprintf_r+0x150c>
   1223c:	4605                	li	a2,1
   1223e:	10f12423          	sw	a5,264(sp)
   12242:	00cbb423          	sd	a2,8(s7)
   12246:	ea3a                	sd	a4,272(sp)
   12248:	479d                	li	a5,7
   1224a:	00d7da63          	ble	a3,a5,1225e <_vfprintf_r+0x1404>
   1224e:	0210                	addi	a2,sp,256
   12250:	85ca                	mv	a1,s2
   12252:	854e                	mv	a0,s3
   12254:	178050ef          	jal	ra,173cc <__sprint_r>
   12258:	16051363          	bnez	a0,123be <_vfprintf_r+0x1564>
   1225c:	8cd6                	mv	s9,s5
   1225e:	67c6                	ld	a5,80(sp)
   12260:	7702                	ld	a4,32(sp)
   12262:	0cc1                	addi	s9,s9,16
   12264:	fefcb823          	sd	a5,-16(s9)
   12268:	7782                	ld	a5,32(sp)
   1226a:	fefcbc23          	sd	a5,-8(s9)
   1226e:	67d2                	ld	a5,272(sp)
   12270:	97ba                	add	a5,a5,a4
   12272:	ea3e                	sd	a5,272(sp)
   12274:	10812783          	lw	a5,264(sp)
   12278:	0017871b          	addiw	a4,a5,1
   1227c:	10e12423          	sw	a4,264(sp)
   12280:	479d                	li	a5,7
   12282:	00e7da63          	ble	a4,a5,12296 <_vfprintf_r+0x143c>
   12286:	0210                	addi	a2,sp,256
   12288:	85ca                	mv	a1,s2
   1228a:	854e                	mv	a0,s3
   1228c:	140050ef          	jal	ra,173cc <__sprint_r>
   12290:	12051763          	bnez	a0,123be <_vfprintf_r+0x1564>
   12294:	8cd6                	mv	s9,s5
   12296:	754e                	ld	a0,240(sp)
   12298:	75ee                	ld	a1,248(sp)
   1229a:	4601                	li	a2,0
   1229c:	4681                	li	a3,0
   1229e:	fffa0b1b          	addiw	s6,s4,-1
   122a2:	5cf060ef          	jal	ra,19070 <__eqtf2>
   122a6:	c12d                	beqz	a0,12308 <_vfprintf_r+0x14ae>
   122a8:	10812703          	lw	a4,264(sp)
   122ac:	67d2                	ld	a5,272(sp)
   122ae:	0485                	addi	s1,s1,1
   122b0:	0017069b          	addiw	a3,a4,1
   122b4:	97da                	add	a5,a5,s6
   122b6:	009cb023          	sd	s1,0(s9)
   122ba:	016cb423          	sd	s6,8(s9)
   122be:	ea3e                	sd	a5,272(sp)
   122c0:	10d12423          	sw	a3,264(sp)
   122c4:	479d                	li	a5,7
   122c6:	0cc1                	addi	s9,s9,16
   122c8:	00d7d963          	ble	a3,a5,122da <_vfprintf_r+0x1480>
   122cc:	0210                	addi	a2,sp,256
   122ce:	85ca                	mv	a1,s2
   122d0:	854e                	mv	a0,s3
   122d2:	0fa050ef          	jal	ra,173cc <__sprint_r>
   122d6:	e565                	bnez	a0,123be <_vfprintf_r+0x1564>
   122d8:	8cd6                	mv	s9,s5
   122da:	119c                	addi	a5,sp,224
   122dc:	00fcb023          	sd	a5,0(s9)
   122e0:	7786                	ld	a5,96(sp)
   122e2:	7706                	ld	a4,96(sp)
   122e4:	010c8b93          	addi	s7,s9,16
   122e8:	00fcb423          	sd	a5,8(s9)
   122ec:	67d2                	ld	a5,272(sp)
   122ee:	97ba                	add	a5,a5,a4
   122f0:	ea3e                	sd	a5,272(sp)
   122f2:	10812783          	lw	a5,264(sp)
   122f6:	0017871b          	addiw	a4,a5,1
   122fa:	10e12423          	sw	a4,264(sp)
   122fe:	479d                	li	a5,7
   12300:	a6e7dce3          	ble	a4,a5,11d78 <_vfprintf_r+0xf1e>
   12304:	896ff06f          	j	1139a <_vfprintf_r+0x540>
   12308:	fd6059e3          	blez	s6,122da <_vfprintf_r+0x1480>
   1230c:	44c1                	li	s1,16
   1230e:	4d9d                	li	s11,7
   12310:	10812703          	lw	a4,264(sp)
   12314:	67d2                	ld	a5,272(sp)
   12316:	010c8613          	addi	a2,s9,16
   1231a:	0017069b          	addiw	a3,a4,1
   1231e:	8736                	mv	a4,a3
   12320:	0164ce63          	blt	s1,s6,1233c <_vfprintf_r+0x14e2>
   12324:	6742                	ld	a4,16(sp)
   12326:	97da                	add	a5,a5,s6
   12328:	016cb423          	sd	s6,8(s9)
   1232c:	00ecb023          	sd	a4,0(s9)
   12330:	ea3e                	sd	a5,272(sp)
   12332:	10d12423          	sw	a3,264(sp)
   12336:	479d                	li	a5,7
   12338:	8cb2                	mv	s9,a2
   1233a:	b779                	j	122c8 <_vfprintf_r+0x146e>
   1233c:	65c2                	ld	a1,16(sp)
   1233e:	07c1                	addi	a5,a5,16
   12340:	009cb423          	sd	s1,8(s9)
   12344:	00bcb023          	sd	a1,0(s9)
   12348:	ea3e                	sd	a5,272(sp)
   1234a:	10e12423          	sw	a4,264(sp)
   1234e:	00ddd963          	ble	a3,s11,12360 <_vfprintf_r+0x1506>
   12352:	0210                	addi	a2,sp,256
   12354:	85ca                	mv	a1,s2
   12356:	854e                	mv	a0,s3
   12358:	074050ef          	jal	ra,173cc <__sprint_r>
   1235c:	e12d                	bnez	a0,123be <_vfprintf_r+0x1564>
   1235e:	8656                	mv	a2,s5
   12360:	3b41                	addiw	s6,s6,-16
   12362:	8cb2                	mv	s9,a2
   12364:	b775                	j	12310 <_vfprintf_r+0x14b6>
   12366:	00cbb423          	sd	a2,8(s7)
   1236a:	ea3a                	sd	a4,272(sp)
   1236c:	10d12423          	sw	a3,264(sp)
   12370:	479d                	li	a5,7
   12372:	bf99                	j	122c8 <_vfprintf_r+0x146e>
   12374:	57a2                	lw	a5,40(sp)
   12376:	4706                	lw	a4,64(sp)
   12378:	40e7843b          	subw	s0,a5,a4
   1237c:	a08051e3          	blez	s0,11d7e <_vfprintf_r+0xf24>
   12380:	67e9                	lui	a5,0x1a
   12382:	4b41                	li	s6,16
   12384:	7c878493          	addi	s1,a5,1992 # 1a7c8 <blanks.4412>
   12388:	4c9d                	li	s9,7
   1238a:	10812703          	lw	a4,264(sp)
   1238e:	009bb023          	sd	s1,0(s7)
   12392:	67d2                	ld	a5,272(sp)
   12394:	0017069b          	addiw	a3,a4,1
   12398:	8736                	mv	a4,a3
   1239a:	028b4c63          	blt	s6,s0,123d2 <_vfprintf_r+0x1578>
   1239e:	008bb423          	sd	s0,8(s7)
   123a2:	943e                	add	s0,s0,a5
   123a4:	ea22                	sd	s0,272(sp)
   123a6:	10d12423          	sw	a3,264(sp)
   123aa:	479d                	li	a5,7
   123ac:	9cd7d9e3          	ble	a3,a5,11d7e <_vfprintf_r+0xf24>
   123b0:	0210                	addi	a2,sp,256
   123b2:	85ca                	mv	a1,s2
   123b4:	854e                	mv	a0,s3
   123b6:	016050ef          	jal	ra,173cc <__sprint_r>
   123ba:	9c0502e3          	beqz	a0,11d7e <_vfprintf_r+0xf24>
   123be:	940c0563          	beqz	s8,11508 <_vfprintf_r+0x6ae>
   123c2:	85e2                	mv	a1,s8
   123c4:	854e                	mv	a0,s3
   123c6:	00000097          	auipc	ra,0x0
   123ca:	76e080e7          	jalr	1902(ra) # 12b34 <_free_r>
   123ce:	93aff06f          	j	11508 <_vfprintf_r+0x6ae>
   123d2:	07c1                	addi	a5,a5,16
   123d4:	016bb423          	sd	s6,8(s7)
   123d8:	ea3e                	sd	a5,272(sp)
   123da:	10e12423          	sw	a4,264(sp)
   123de:	0bc1                	addi	s7,s7,16
   123e0:	00dcd963          	ble	a3,s9,123f2 <_vfprintf_r+0x1598>
   123e4:	0210                	addi	a2,sp,256
   123e6:	85ca                	mv	a1,s2
   123e8:	854e                	mv	a0,s3
   123ea:	7e3040ef          	jal	ra,173cc <__sprint_r>
   123ee:	f961                	bnez	a0,123be <_vfprintf_r+0x1564>
   123f0:	8bd6                	mv	s7,s5
   123f2:	3441                	addiw	s0,s0,-16
   123f4:	bf59                	j	1238a <_vfprintf_r+0x1530>
   123f6:	85e2                	mv	a1,s8
   123f8:	854e                	mv	a0,s3
   123fa:	00000097          	auipc	ra,0x0
   123fe:	73a080e7          	jalr	1850(ra) # 12b34 <_free_r>
   12402:	b265                	j	11daa <_vfprintf_r+0xf50>
   12404:	67d2                	ld	a5,272(sp)
   12406:	90078163          	beqz	a5,11508 <_vfprintf_r+0x6ae>
   1240a:	0210                	addi	a2,sp,256
   1240c:	85ca                	mv	a1,s2
   1240e:	854e                	mv	a0,s3
   12410:	7bd040ef          	jal	ra,173cc <__sprint_r>
   12414:	8f4ff06f          	j	11508 <_vfprintf_r+0x6ae>

0000000000012418 <vfprintf>:
   12418:	86b2                	mv	a3,a2
   1241a:	862e                	mv	a2,a1
   1241c:	85aa                	mv	a1,a0
   1241e:	8301b503          	ld	a0,-2000(gp) # 1d4a8 <_impure_ptr>
   12422:	fffff317          	auipc	t1,0xfffff
   12426:	a3830067          	jr	-1480(t1) # 10e5a <_vfprintf_r>

000000000001242a <__sbprintf>:
   1242a:	0105d783          	lhu	a5,16(a1)
   1242e:	b3010113          	addi	sp,sp,-1232
   12432:	4c813023          	sd	s0,1216(sp)
   12436:	9bf5                	andi	a5,a5,-3
   12438:	00f11823          	sh	a5,16(sp)
   1243c:	0ac5a783          	lw	a5,172(a1)
   12440:	842e                	mv	s0,a1
   12442:	4a913c23          	sd	s1,1208(sp)
   12446:	d73e                	sw	a5,172(sp)
   12448:	0125d783          	lhu	a5,18(a1)
   1244c:	4b213823          	sd	s2,1200(sp)
   12450:	4c113423          	sd	ra,1224(sp)
   12454:	00f11923          	sh	a5,18(sp)
   12458:	799c                	ld	a5,48(a1)
   1245a:	892a                	mv	s2,a0
   1245c:	d402                	sw	zero,40(sp)
   1245e:	f83e                	sd	a5,48(sp)
   12460:	61bc                	ld	a5,64(a1)
   12462:	858a                	mv	a1,sp
   12464:	e0be                	sd	a5,64(sp)
   12466:	191c                	addi	a5,sp,176
   12468:	e03e                	sd	a5,0(sp)
   1246a:	ec3e                	sd	a5,24(sp)
   1246c:	40000793          	li	a5,1024
   12470:	c63e                	sw	a5,12(sp)
   12472:	d03e                	sw	a5,32(sp)
   12474:	9e7fe0ef          	jal	ra,10e5a <_vfprintf_r>
   12478:	84aa                	mv	s1,a0
   1247a:	00054a63          	bltz	a0,1248e <__sbprintf+0x64>
   1247e:	858a                	mv	a1,sp
   12480:	854a                	mv	a0,s2
   12482:	00000097          	auipc	ra,0x0
   12486:	39c080e7          	jalr	924(ra) # 1281e <_fflush_r>
   1248a:	c111                	beqz	a0,1248e <__sbprintf+0x64>
   1248c:	54fd                	li	s1,-1
   1248e:	01015783          	lhu	a5,16(sp)
   12492:	0407f793          	andi	a5,a5,64
   12496:	c799                	beqz	a5,124a4 <__sbprintf+0x7a>
   12498:	01045783          	lhu	a5,16(s0)
   1249c:	0407e793          	ori	a5,a5,64
   124a0:	00f41823          	sh	a5,16(s0)
   124a4:	4c813083          	ld	ra,1224(sp)
   124a8:	4c013403          	ld	s0,1216(sp)
   124ac:	8526                	mv	a0,s1
   124ae:	4b013903          	ld	s2,1200(sp)
   124b2:	4b813483          	ld	s1,1208(sp)
   124b6:	4d010113          	addi	sp,sp,1232
   124ba:	8082                	ret
	...

00000000000124be <__swsetup_r>:
   124be:	1101                	addi	sp,sp,-32
   124c0:	e426                	sd	s1,8(sp)
   124c2:	84aa                	mv	s1,a0
   124c4:	8301b503          	ld	a0,-2000(gp) # 1d4a8 <_impure_ptr>
   124c8:	e822                	sd	s0,16(sp)
   124ca:	ec06                	sd	ra,24(sp)
   124cc:	842e                	mv	s0,a1
   124ce:	c509                	beqz	a0,124d8 <__swsetup_r+0x1a>
   124d0:	493c                	lw	a5,80(a0)
   124d2:	e399                	bnez	a5,124d8 <__swsetup_r+0x1a>
   124d4:	47c000ef          	jal	ra,12950 <__sinit>
   124d8:	01041703          	lh	a4,16(s0)
   124dc:	03071793          	slli	a5,a4,0x30
   124e0:	93c1                	srli	a5,a5,0x30
   124e2:	0087f693          	andi	a3,a5,8
   124e6:	eeb9                	bnez	a3,12544 <__swsetup_r+0x86>
   124e8:	0107f693          	andi	a3,a5,16
   124ec:	ee89                	bnez	a3,12506 <__swsetup_r+0x48>
   124ee:	47a5                	li	a5,9
   124f0:	c09c                	sw	a5,0(s1)
   124f2:	04076713          	ori	a4,a4,64
   124f6:	00e41823          	sh	a4,16(s0)
   124fa:	557d                	li	a0,-1
   124fc:	60e2                	ld	ra,24(sp)
   124fe:	6442                	ld	s0,16(sp)
   12500:	64a2                	ld	s1,8(sp)
   12502:	6105                	addi	sp,sp,32
   12504:	8082                	ret
   12506:	8b91                	andi	a5,a5,4
   12508:	cb85                	beqz	a5,12538 <__swsetup_r+0x7a>
   1250a:	6c2c                	ld	a1,88(s0)
   1250c:	cd81                	beqz	a1,12524 <__swsetup_r+0x66>
   1250e:	07440793          	addi	a5,s0,116
   12512:	00f58763          	beq	a1,a5,12520 <__swsetup_r+0x62>
   12516:	8526                	mv	a0,s1
   12518:	00000097          	auipc	ra,0x0
   1251c:	61c080e7          	jalr	1564(ra) # 12b34 <_free_r>
   12520:	04043c23          	sd	zero,88(s0)
   12524:	01045783          	lhu	a5,16(s0)
   12528:	00042423          	sw	zero,8(s0)
   1252c:	fdb7f793          	andi	a5,a5,-37
   12530:	00f41823          	sh	a5,16(s0)
   12534:	6c1c                	ld	a5,24(s0)
   12536:	e01c                	sd	a5,0(s0)
   12538:	01045783          	lhu	a5,16(s0)
   1253c:	0087e793          	ori	a5,a5,8
   12540:	00f41823          	sh	a5,16(s0)
   12544:	6c1c                	ld	a5,24(s0)
   12546:	ef99                	bnez	a5,12564 <__swsetup_r+0xa6>
   12548:	01045783          	lhu	a5,16(s0)
   1254c:	20000713          	li	a4,512
   12550:	2807f793          	andi	a5,a5,640
   12554:	00e78863          	beq	a5,a4,12564 <__swsetup_r+0xa6>
   12558:	85a2                	mv	a1,s0
   1255a:	8526                	mv	a0,s1
   1255c:	00002097          	auipc	ra,0x2
   12560:	4cc080e7          	jalr	1228(ra) # 14a28 <__smakebuf_r>
   12564:	01045783          	lhu	a5,16(s0)
   12568:	0017f713          	andi	a4,a5,1
   1256c:	c705                	beqz	a4,12594 <__swsetup_r+0xd6>
   1256e:	501c                	lw	a5,32(s0)
   12570:	00042623          	sw	zero,12(s0)
   12574:	40f007bb          	negw	a5,a5
   12578:	d41c                	sw	a5,40(s0)
   1257a:	6c1c                	ld	a5,24(s0)
   1257c:	4501                	li	a0,0
   1257e:	ffbd                	bnez	a5,124fc <__swsetup_r+0x3e>
   12580:	01041783          	lh	a5,16(s0)
   12584:	0807f713          	andi	a4,a5,128
   12588:	db35                	beqz	a4,124fc <__swsetup_r+0x3e>
   1258a:	0407e793          	ori	a5,a5,64
   1258e:	00f41823          	sh	a5,16(s0)
   12592:	b7a5                	j	124fa <__swsetup_r+0x3c>
   12594:	8b89                	andi	a5,a5,2
   12596:	4701                	li	a4,0
   12598:	e391                	bnez	a5,1259c <__swsetup_r+0xde>
   1259a:	5018                	lw	a4,32(s0)
   1259c:	c458                	sw	a4,12(s0)
   1259e:	bff1                	j	1257a <__swsetup_r+0xbc>
	...

00000000000125a2 <__register_exitproc>:
   125a2:	8281b703          	ld	a4,-2008(gp) # 1d4a0 <_global_impure_ptr>
   125a6:	832a                	mv	t1,a0
   125a8:	1f873783          	ld	a5,504(a4)
   125ac:	e789                	bnez	a5,125b6 <__register_exitproc+0x14>
   125ae:	20070793          	addi	a5,a4,512
   125b2:	1ef73c23          	sd	a5,504(a4)
   125b6:	4798                	lw	a4,8(a5)
   125b8:	487d                	li	a6,31
   125ba:	557d                	li	a0,-1
   125bc:	04e84463          	blt	a6,a4,12604 <__register_exitproc+0x62>
   125c0:	02030a63          	beqz	t1,125f4 <__register_exitproc+0x52>
   125c4:	00371813          	slli	a6,a4,0x3
   125c8:	983e                	add	a6,a6,a5
   125ca:	10c83823          	sd	a2,272(a6)
   125ce:	3107a883          	lw	a7,784(a5)
   125d2:	4605                	li	a2,1
   125d4:	00e6163b          	sllw	a2,a2,a4
   125d8:	00c8e8b3          	or	a7,a7,a2
   125dc:	3117a823          	sw	a7,784(a5)
   125e0:	20d83823          	sd	a3,528(a6)
   125e4:	4689                	li	a3,2
   125e6:	00d31763          	bne	t1,a3,125f4 <__register_exitproc+0x52>
   125ea:	3147a683          	lw	a3,788(a5)
   125ee:	8e55                	or	a2,a2,a3
   125f0:	30c7aa23          	sw	a2,788(a5)
   125f4:	0017069b          	addiw	a3,a4,1
   125f8:	0709                	addi	a4,a4,2
   125fa:	070e                	slli	a4,a4,0x3
   125fc:	c794                	sw	a3,8(a5)
   125fe:	97ba                	add	a5,a5,a4
   12600:	e38c                	sd	a1,0(a5)
   12602:	4501                	li	a0,0
   12604:	8082                	ret
	...

0000000000012608 <__call_exitprocs>:
   12608:	715d                	addi	sp,sp,-80
   1260a:	f44e                	sd	s3,40(sp)
   1260c:	8281b983          	ld	s3,-2008(gp) # 1d4a0 <_global_impure_ptr>
   12610:	f052                	sd	s4,32(sp)
   12612:	ec56                	sd	s5,24(sp)
   12614:	e85a                	sd	s6,16(sp)
   12616:	e486                	sd	ra,72(sp)
   12618:	e0a2                	sd	s0,64(sp)
   1261a:	fc26                	sd	s1,56(sp)
   1261c:	f84a                	sd	s2,48(sp)
   1261e:	e45e                	sd	s7,8(sp)
   12620:	8aaa                	mv	s5,a0
   12622:	8a2e                	mv	s4,a1
   12624:	4b05                	li	s6,1
   12626:	1f89b403          	ld	s0,504(s3)
   1262a:	c801                	beqz	s0,1263a <__call_exitprocs+0x32>
   1262c:	4404                	lw	s1,8(s0)
   1262e:	34fd                	addiw	s1,s1,-1
   12630:	00349913          	slli	s2,s1,0x3
   12634:	9922                	add	s2,s2,s0
   12636:	0004dd63          	bgez	s1,12650 <__call_exitprocs+0x48>
   1263a:	60a6                	ld	ra,72(sp)
   1263c:	6406                	ld	s0,64(sp)
   1263e:	74e2                	ld	s1,56(sp)
   12640:	7942                	ld	s2,48(sp)
   12642:	79a2                	ld	s3,40(sp)
   12644:	7a02                	ld	s4,32(sp)
   12646:	6ae2                	ld	s5,24(sp)
   12648:	6b42                	ld	s6,16(sp)
   1264a:	6ba2                	ld	s7,8(sp)
   1264c:	6161                	addi	sp,sp,80
   1264e:	8082                	ret
   12650:	000a0963          	beqz	s4,12662 <__call_exitprocs+0x5a>
   12654:	21093783          	ld	a5,528(s2)
   12658:	01478563          	beq	a5,s4,12662 <__call_exitprocs+0x5a>
   1265c:	34fd                	addiw	s1,s1,-1
   1265e:	1961                	addi	s2,s2,-8
   12660:	bfd9                	j	12636 <__call_exitprocs+0x2e>
   12662:	441c                	lw	a5,8(s0)
   12664:	01093683          	ld	a3,16(s2)
   12668:	37fd                	addiw	a5,a5,-1
   1266a:	02979663          	bne	a5,s1,12696 <__call_exitprocs+0x8e>
   1266e:	c404                	sw	s1,8(s0)
   12670:	d6f5                	beqz	a3,1265c <__call_exitprocs+0x54>
   12672:	31042703          	lw	a4,784(s0)
   12676:	009b163b          	sllw	a2,s6,s1
   1267a:	00842b83          	lw	s7,8(s0)
   1267e:	8f71                	and	a4,a4,a2
   12680:	2701                	sext.w	a4,a4
   12682:	ef09                	bnez	a4,1269c <__call_exitprocs+0x94>
   12684:	9682                	jalr	a3
   12686:	4418                	lw	a4,8(s0)
   12688:	1f89b783          	ld	a5,504(s3)
   1268c:	f9771de3          	bne	a4,s7,12626 <__call_exitprocs+0x1e>
   12690:	fcf406e3          	beq	s0,a5,1265c <__call_exitprocs+0x54>
   12694:	bf49                	j	12626 <__call_exitprocs+0x1e>
   12696:	00093823          	sd	zero,16(s2)
   1269a:	bfd9                	j	12670 <__call_exitprocs+0x68>
   1269c:	31442783          	lw	a5,788(s0)
   126a0:	11093583          	ld	a1,272(s2)
   126a4:	8ff1                	and	a5,a5,a2
   126a6:	2781                	sext.w	a5,a5
   126a8:	e781                	bnez	a5,126b0 <__call_exitprocs+0xa8>
   126aa:	8556                	mv	a0,s5
   126ac:	9682                	jalr	a3
   126ae:	bfe1                	j	12686 <__call_exitprocs+0x7e>
   126b0:	852e                	mv	a0,a1
   126b2:	9682                	jalr	a3
   126b4:	bfc9                	j	12686 <__call_exitprocs+0x7e>
	...

00000000000126b8 <__sflush_r>:
   126b8:	01059783          	lh	a5,16(a1)
   126bc:	7179                	addi	sp,sp,-48
   126be:	f022                	sd	s0,32(sp)
   126c0:	03079713          	slli	a4,a5,0x30
   126c4:	9341                	srli	a4,a4,0x30
   126c6:	ec26                	sd	s1,24(sp)
   126c8:	f406                	sd	ra,40(sp)
   126ca:	e84a                	sd	s2,16(sp)
   126cc:	e44e                	sd	s3,8(sp)
   126ce:	00877693          	andi	a3,a4,8
   126d2:	84aa                	mv	s1,a0
   126d4:	842e                	mv	s0,a1
   126d6:	10069263          	bnez	a3,127da <__sflush_r+0x122>
   126da:	6705                	lui	a4,0x1
   126dc:	80070713          	addi	a4,a4,-2048 # 800 <_start-0xf8b0>
   126e0:	8fd9                	or	a5,a5,a4
   126e2:	4598                	lw	a4,8(a1)
   126e4:	00f59823          	sh	a5,16(a1)
   126e8:	00e04d63          	bgtz	a4,12702 <__sflush_r+0x4a>
   126ec:	59b8                	lw	a4,112(a1)
   126ee:	00e04a63          	bgtz	a4,12702 <__sflush_r+0x4a>
   126f2:	4501                	li	a0,0
   126f4:	70a2                	ld	ra,40(sp)
   126f6:	7402                	ld	s0,32(sp)
   126f8:	64e2                	ld	s1,24(sp)
   126fa:	6942                	ld	s2,16(sp)
   126fc:	69a2                	ld	s3,8(sp)
   126fe:	6145                	addi	sp,sp,48
   12700:	8082                	ret
   12702:	6438                	ld	a4,72(s0)
   12704:	d77d                	beqz	a4,126f2 <__sflush_r+0x3a>
   12706:	0004a903          	lw	s2,0(s1)
   1270a:	03379693          	slli	a3,a5,0x33
   1270e:	0004a023          	sw	zero,0(s1)
   12712:	780c                	ld	a1,48(s0)
   12714:	0806da63          	bgez	a3,127a8 <__sflush_r+0xf0>
   12718:	6850                	ld	a2,144(s0)
   1271a:	01045783          	lhu	a5,16(s0)
   1271e:	8b91                	andi	a5,a5,4
   12720:	c799                	beqz	a5,1272e <__sflush_r+0x76>
   12722:	441c                	lw	a5,8(s0)
   12724:	8e1d                	sub	a2,a2,a5
   12726:	6c3c                	ld	a5,88(s0)
   12728:	c399                	beqz	a5,1272e <__sflush_r+0x76>
   1272a:	583c                	lw	a5,112(s0)
   1272c:	8e1d                	sub	a2,a2,a5
   1272e:	643c                	ld	a5,72(s0)
   12730:	780c                	ld	a1,48(s0)
   12732:	4681                	li	a3,0
   12734:	8526                	mv	a0,s1
   12736:	9782                	jalr	a5
   12738:	57fd                	li	a5,-1
   1273a:	01045683          	lhu	a3,16(s0)
   1273e:	00f51d63          	bne	a0,a5,12758 <__sflush_r+0xa0>
   12742:	409c                	lw	a5,0(s1)
   12744:	4775                	li	a4,29
   12746:	08f76463          	bltu	a4,a5,127ce <__sflush_r+0x116>
   1274a:	20400737          	lui	a4,0x20400
   1274e:	0705                	addi	a4,a4,1
   12750:	00f75733          	srl	a4,a4,a5
   12754:	8b05                	andi	a4,a4,1
   12756:	cf25                	beqz	a4,127ce <__sflush_r+0x116>
   12758:	77fd                	lui	a5,0xfffff
   1275a:	7ff78793          	addi	a5,a5,2047 # fffffffffffff7ff <__global_pointer$+0xfffffffffffe1b87>
   1275e:	6c18                	ld	a4,24(s0)
   12760:	8ff5                	and	a5,a5,a3
   12762:	0107979b          	slliw	a5,a5,0x10
   12766:	4107d79b          	sraiw	a5,a5,0x10
   1276a:	e018                	sd	a4,0(s0)
   1276c:	00f41823          	sh	a5,16(s0)
   12770:	00042423          	sw	zero,8(s0)
   12774:	03379713          	slli	a4,a5,0x33
   12778:	00075863          	bgez	a4,12788 <__sflush_r+0xd0>
   1277c:	57fd                	li	a5,-1
   1277e:	00f51463          	bne	a0,a5,12786 <__sflush_r+0xce>
   12782:	409c                	lw	a5,0(s1)
   12784:	e391                	bnez	a5,12788 <__sflush_r+0xd0>
   12786:	e848                	sd	a0,144(s0)
   12788:	6c2c                	ld	a1,88(s0)
   1278a:	0124a023          	sw	s2,0(s1)
   1278e:	d1b5                	beqz	a1,126f2 <__sflush_r+0x3a>
   12790:	07440793          	addi	a5,s0,116
   12794:	00f58763          	beq	a1,a5,127a2 <__sflush_r+0xea>
   12798:	8526                	mv	a0,s1
   1279a:	00000097          	auipc	ra,0x0
   1279e:	39a080e7          	jalr	922(ra) # 12b34 <_free_r>
   127a2:	04043c23          	sd	zero,88(s0)
   127a6:	b7b1                	j	126f2 <__sflush_r+0x3a>
   127a8:	4601                	li	a2,0
   127aa:	4685                	li	a3,1
   127ac:	8526                	mv	a0,s1
   127ae:	9702                	jalr	a4
   127b0:	57fd                	li	a5,-1
   127b2:	862a                	mv	a2,a0
   127b4:	f6f513e3          	bne	a0,a5,1271a <__sflush_r+0x62>
   127b8:	409c                	lw	a5,0(s1)
   127ba:	d3a5                	beqz	a5,1271a <__sflush_r+0x62>
   127bc:	4775                	li	a4,29
   127be:	00e78563          	beq	a5,a4,127c8 <__sflush_r+0x110>
   127c2:	4759                	li	a4,22
   127c4:	04e79463          	bne	a5,a4,1280c <__sflush_r+0x154>
   127c8:	0124a023          	sw	s2,0(s1)
   127cc:	b71d                	j	126f2 <__sflush_r+0x3a>
   127ce:	0406e793          	ori	a5,a3,64
   127d2:	00f41823          	sh	a5,16(s0)
   127d6:	557d                	li	a0,-1
   127d8:	bf31                	j	126f4 <__sflush_r+0x3c>
   127da:	0185b983          	ld	s3,24(a1)
   127de:	f0098ae3          	beqz	s3,126f2 <__sflush_r+0x3a>
   127e2:	0005b903          	ld	s2,0(a1)
   127e6:	8b0d                	andi	a4,a4,3
   127e8:	0135b023          	sd	s3,0(a1)
   127ec:	4139093b          	subw	s2,s2,s3
   127f0:	4781                	li	a5,0
   127f2:	e311                	bnez	a4,127f6 <__sflush_r+0x13e>
   127f4:	519c                	lw	a5,32(a1)
   127f6:	c45c                	sw	a5,12(s0)
   127f8:	ef205de3          	blez	s2,126f2 <__sflush_r+0x3a>
   127fc:	603c                	ld	a5,64(s0)
   127fe:	780c                	ld	a1,48(s0)
   12800:	86ca                	mv	a3,s2
   12802:	864e                	mv	a2,s3
   12804:	8526                	mv	a0,s1
   12806:	9782                	jalr	a5
   12808:	00a04763          	bgtz	a0,12816 <__sflush_r+0x15e>
   1280c:	01045783          	lhu	a5,16(s0)
   12810:	0407e793          	ori	a5,a5,64
   12814:	bf7d                	j	127d2 <__sflush_r+0x11a>
   12816:	99aa                	add	s3,s3,a0
   12818:	40a9093b          	subw	s2,s2,a0
   1281c:	bff1                	j	127f8 <__sflush_r+0x140>

000000000001281e <_fflush_r>:
   1281e:	1101                	addi	sp,sp,-32
   12820:	e822                	sd	s0,16(sp)
   12822:	ec06                	sd	ra,24(sp)
   12824:	842a                	mv	s0,a0
   12826:	c909                	beqz	a0,12838 <_fflush_r+0x1a>
   12828:	493c                	lw	a5,80(a0)
   1282a:	e799                	bnez	a5,12838 <_fflush_r+0x1a>
   1282c:	e42e                	sd	a1,8(sp)
   1282e:	00000097          	auipc	ra,0x0
   12832:	122080e7          	jalr	290(ra) # 12950 <__sinit>
   12836:	65a2                	ld	a1,8(sp)
   12838:	01059783          	lh	a5,16(a1)
   1283c:	cb89                	beqz	a5,1284e <_fflush_r+0x30>
   1283e:	8522                	mv	a0,s0
   12840:	6442                	ld	s0,16(sp)
   12842:	60e2                	ld	ra,24(sp)
   12844:	6105                	addi	sp,sp,32
   12846:	00000317          	auipc	t1,0x0
   1284a:	e7230067          	jr	-398(t1) # 126b8 <__sflush_r>
   1284e:	60e2                	ld	ra,24(sp)
   12850:	6442                	ld	s0,16(sp)
   12852:	4501                	li	a0,0
   12854:	6105                	addi	sp,sp,32
   12856:	8082                	ret

0000000000012858 <fflush>:
   12858:	85aa                	mv	a1,a0
   1285a:	e919                	bnez	a0,12870 <fflush+0x18>
   1285c:	8281b503          	ld	a0,-2008(gp) # 1d4a0 <_global_impure_ptr>
   12860:	000135b7          	lui	a1,0x13
   12864:	81e58593          	addi	a1,a1,-2018 # 1281e <_fflush_r>
   12868:	00000317          	auipc	t1,0x0
   1286c:	7e630067          	jr	2022(t1) # 1304e <_fwalk_reent>
   12870:	8301b503          	ld	a0,-2000(gp) # 1d4a8 <_impure_ptr>
   12874:	00000317          	auipc	t1,0x0
   12878:	faa30067          	jr	-86(t1) # 1281e <_fflush_r>
	...

000000000001287e <__fp_lock>:
   1287e:	4501                	li	a0,0
   12880:	8082                	ret

0000000000012882 <_cleanup_r>:
   12882:	000185b7          	lui	a1,0x18
   12886:	ee258593          	addi	a1,a1,-286 # 17ee2 <_fclose_r>
   1288a:	7c40006f          	j	1304e <_fwalk_reent>

000000000001288e <std.isra.0>:
   1288e:	1141                	addi	sp,sp,-16
   12890:	e022                	sd	s0,0(sp)
   12892:	e406                	sd	ra,8(sp)
   12894:	842a                	mv	s0,a0
   12896:	00b51823          	sh	a1,16(a0)
   1289a:	00c51923          	sh	a2,18(a0)
   1289e:	00053023          	sd	zero,0(a0)
   128a2:	00053423          	sd	zero,8(a0)
   128a6:	0a052623          	sw	zero,172(a0)
   128aa:	00053c23          	sd	zero,24(a0)
   128ae:	02052023          	sw	zero,32(a0)
   128b2:	02052423          	sw	zero,40(a0)
   128b6:	4621                	li	a2,8
   128b8:	4581                	li	a1,0
   128ba:	0a450513          	addi	a0,a0,164
   128be:	ffffe097          	auipc	ra,0xffffe
   128c2:	3d4080e7          	jalr	980(ra) # 10c92 <memset>
   128c6:	000167b7          	lui	a5,0x16
   128ca:	c4a78793          	addi	a5,a5,-950 # 15c4a <__sread>
   128ce:	fc1c                	sd	a5,56(s0)
   128d0:	000167b7          	lui	a5,0x16
   128d4:	c8078793          	addi	a5,a5,-896 # 15c80 <__swrite>
   128d8:	e03c                	sd	a5,64(s0)
   128da:	000167b7          	lui	a5,0x16
   128de:	cd278793          	addi	a5,a5,-814 # 15cd2 <__sseek>
   128e2:	e43c                	sd	a5,72(s0)
   128e4:	000167b7          	lui	a5,0x16
   128e8:	d0e78793          	addi	a5,a5,-754 # 15d0e <__sclose>
   128ec:	f800                	sd	s0,48(s0)
   128ee:	e83c                	sd	a5,80(s0)
   128f0:	60a2                	ld	ra,8(sp)
   128f2:	6402                	ld	s0,0(sp)
   128f4:	0141                	addi	sp,sp,16
   128f6:	8082                	ret

00000000000128f8 <__fp_unlock>:
   128f8:	4501                	li	a0,0
   128fa:	8082                	ret

00000000000128fc <__sfmoreglue>:
   128fc:	1101                	addi	sp,sp,-32
   128fe:	e426                	sd	s1,8(sp)
   12900:	0b000613          	li	a2,176
   12904:	fff5849b          	addiw	s1,a1,-1
   12908:	02c484b3          	mul	s1,s1,a2
   1290c:	e04a                	sd	s2,0(sp)
   1290e:	892e                	mv	s2,a1
   12910:	e822                	sd	s0,16(sp)
   12912:	ec06                	sd	ra,24(sp)
   12914:	0c848593          	addi	a1,s1,200
   12918:	e8dfd0ef          	jal	ra,107a4 <_malloc_r>
   1291c:	842a                	mv	s0,a0
   1291e:	cd11                	beqz	a0,1293a <__sfmoreglue+0x3e>
   12920:	00053023          	sd	zero,0(a0)
   12924:	01252423          	sw	s2,8(a0)
   12928:	0561                	addi	a0,a0,24
   1292a:	e808                	sd	a0,16(s0)
   1292c:	0b048613          	addi	a2,s1,176
   12930:	4581                	li	a1,0
   12932:	ffffe097          	auipc	ra,0xffffe
   12936:	360080e7          	jalr	864(ra) # 10c92 <memset>
   1293a:	8522                	mv	a0,s0
   1293c:	60e2                	ld	ra,24(sp)
   1293e:	6442                	ld	s0,16(sp)
   12940:	64a2                	ld	s1,8(sp)
   12942:	6902                	ld	s2,0(sp)
   12944:	6105                	addi	sp,sp,32
   12946:	8082                	ret

0000000000012948 <_cleanup>:
   12948:	8281b503          	ld	a0,-2008(gp) # 1d4a0 <_global_impure_ptr>
   1294c:	f37ff06f          	j	12882 <_cleanup_r>

0000000000012950 <__sinit>:
   12950:	493c                	lw	a5,80(a0)
   12952:	eba1                	bnez	a5,129a2 <__sinit+0x52>
   12954:	1141                	addi	sp,sp,-16
   12956:	000137b7          	lui	a5,0x13
   1295a:	e406                	sd	ra,8(sp)
   1295c:	e022                	sd	s0,0(sp)
   1295e:	88278793          	addi	a5,a5,-1918 # 12882 <_cleanup_r>
   12962:	ed3c                	sd	a5,88(a0)
   12964:	478d                	li	a5,3
   12966:	52f52423          	sw	a5,1320(a0)
   1296a:	53850793          	addi	a5,a0,1336
   1296e:	842a                	mv	s0,a0
   12970:	52f53823          	sd	a5,1328(a0)
   12974:	52053023          	sd	zero,1312(a0)
   12978:	6508                	ld	a0,8(a0)
   1297a:	4601                	li	a2,0
   1297c:	4591                	li	a1,4
   1297e:	f11ff0ef          	jal	ra,1288e <std.isra.0>
   12982:	6808                	ld	a0,16(s0)
   12984:	4605                	li	a2,1
   12986:	45a5                	li	a1,9
   12988:	f07ff0ef          	jal	ra,1288e <std.isra.0>
   1298c:	6c08                	ld	a0,24(s0)
   1298e:	4609                	li	a2,2
   12990:	45c9                	li	a1,18
   12992:	efdff0ef          	jal	ra,1288e <std.isra.0>
   12996:	4785                	li	a5,1
   12998:	c83c                	sw	a5,80(s0)
   1299a:	60a2                	ld	ra,8(sp)
   1299c:	6402                	ld	s0,0(sp)
   1299e:	0141                	addi	sp,sp,16
   129a0:	8082                	ret
   129a2:	8082                	ret

00000000000129a4 <__sfp>:
   129a4:	1101                	addi	sp,sp,-32
   129a6:	e426                	sd	s1,8(sp)
   129a8:	8281b483          	ld	s1,-2008(gp) # 1d4a0 <_global_impure_ptr>
   129ac:	e04a                	sd	s2,0(sp)
   129ae:	ec06                	sd	ra,24(sp)
   129b0:	48bc                	lw	a5,80(s1)
   129b2:	e822                	sd	s0,16(sp)
   129b4:	892a                	mv	s2,a0
   129b6:	e791                	bnez	a5,129c2 <__sfp+0x1e>
   129b8:	8526                	mv	a0,s1
   129ba:	00000097          	auipc	ra,0x0
   129be:	f96080e7          	jalr	-106(ra) # 12950 <__sinit>
   129c2:	52048493          	addi	s1,s1,1312
   129c6:	6880                	ld	s0,16(s1)
   129c8:	449c                	lw	a5,8(s1)
   129ca:	37fd                	addiw	a5,a5,-1
   129cc:	0007d663          	bgez	a5,129d8 <__sfp+0x34>
   129d0:	609c                	ld	a5,0(s1)
   129d2:	cb89                	beqz	a5,129e4 <__sfp+0x40>
   129d4:	6084                	ld	s1,0(s1)
   129d6:	bfc5                	j	129c6 <__sfp+0x22>
   129d8:	01041703          	lh	a4,16(s0)
   129dc:	c71d                	beqz	a4,12a0a <__sfp+0x66>
   129de:	0b040413          	addi	s0,s0,176
   129e2:	b7e5                	j	129ca <__sfp+0x26>
   129e4:	4591                	li	a1,4
   129e6:	854a                	mv	a0,s2
   129e8:	00000097          	auipc	ra,0x0
   129ec:	f14080e7          	jalr	-236(ra) # 128fc <__sfmoreglue>
   129f0:	e088                	sd	a0,0(s1)
   129f2:	f16d                	bnez	a0,129d4 <__sfp+0x30>
   129f4:	47b1                	li	a5,12
   129f6:	00f92023          	sw	a5,0(s2)
   129fa:	4401                	li	s0,0
   129fc:	8522                	mv	a0,s0
   129fe:	60e2                	ld	ra,24(sp)
   12a00:	6442                	ld	s0,16(sp)
   12a02:	64a2                	ld	s1,8(sp)
   12a04:	6902                	ld	s2,0(sp)
   12a06:	6105                	addi	sp,sp,32
   12a08:	8082                	ret
   12a0a:	77c1                	lui	a5,0xffff0
   12a0c:	2785                	addiw	a5,a5,1
   12a0e:	0a042623          	sw	zero,172(s0)
   12a12:	00043023          	sd	zero,0(s0)
   12a16:	00043423          	sd	zero,8(s0)
   12a1a:	c81c                	sw	a5,16(s0)
   12a1c:	00043c23          	sd	zero,24(s0)
   12a20:	02042023          	sw	zero,32(s0)
   12a24:	02042423          	sw	zero,40(s0)
   12a28:	4621                	li	a2,8
   12a2a:	4581                	li	a1,0
   12a2c:	0a440513          	addi	a0,s0,164
   12a30:	a62fe0ef          	jal	ra,10c92 <memset>
   12a34:	04043c23          	sd	zero,88(s0)
   12a38:	06042023          	sw	zero,96(s0)
   12a3c:	06043c23          	sd	zero,120(s0)
   12a40:	08042023          	sw	zero,128(s0)
   12a44:	bf65                	j	129fc <__sfp+0x58>

0000000000012a46 <__sfp_lock_acquire>:
   12a46:	8082                	ret

0000000000012a48 <__sfp_lock_release>:
   12a48:	8082                	ret

0000000000012a4a <__sinit_lock_acquire>:
   12a4a:	8082                	ret

0000000000012a4c <__sinit_lock_release>:
   12a4c:	8082                	ret

0000000000012a4e <__fp_lock_all>:
   12a4e:	8301b503          	ld	a0,-2000(gp) # 1d4a8 <_impure_ptr>
   12a52:	000135b7          	lui	a1,0x13
   12a56:	87e58593          	addi	a1,a1,-1922 # 1287e <__fp_lock>
   12a5a:	5900006f          	j	12fea <_fwalk>

0000000000012a5e <__fp_unlock_all>:
   12a5e:	8301b503          	ld	a0,-2000(gp) # 1d4a8 <_impure_ptr>
   12a62:	000135b7          	lui	a1,0x13
   12a66:	8f858593          	addi	a1,a1,-1800 # 128f8 <__fp_unlock>
   12a6a:	00000317          	auipc	t1,0x0
   12a6e:	58030067          	jr	1408(t1) # 12fea <_fwalk>

0000000000012a72 <_malloc_trim_r>:
   12a72:	7139                	addi	sp,sp,-64
   12a74:	f04a                	sd	s2,32(sp)
   12a76:	6975                	lui	s2,0x1d
   12a78:	f822                	sd	s0,48(sp)
   12a7a:	f426                	sd	s1,40(sp)
   12a7c:	ec4e                	sd	s3,24(sp)
   12a7e:	e42e                	sd	a1,8(sp)
   12a80:	fc06                	sd	ra,56(sp)
   12a82:	89aa                	mv	s3,a0
   12a84:	ac090913          	addi	s2,s2,-1344 # 1cac0 <__malloc_av_>
   12a88:	ab4fe0ef          	jal	ra,10d3c <__malloc_lock>
   12a8c:	01093783          	ld	a5,16(s2)
   12a90:	65a2                	ld	a1,8(sp)
   12a92:	6784                	ld	s1,8(a5)
   12a94:	6785                	lui	a5,0x1
   12a96:	fdf78413          	addi	s0,a5,-33 # fdf <_start-0xf0d1>
   12a9a:	98f1                	andi	s1,s1,-4
   12a9c:	8c0d                	sub	s0,s0,a1
   12a9e:	9426                	add	s0,s0,s1
   12aa0:	8031                	srli	s0,s0,0xc
   12aa2:	147d                	addi	s0,s0,-1
   12aa4:	0432                	slli	s0,s0,0xc
   12aa6:	00f45f63          	ble	a5,s0,12ac4 <_malloc_trim_r+0x52>
   12aaa:	854e                	mv	a0,s3
   12aac:	ffffe097          	auipc	ra,0xffffe
   12ab0:	292080e7          	jalr	658(ra) # 10d3e <__malloc_unlock>
   12ab4:	4501                	li	a0,0
   12ab6:	70e2                	ld	ra,56(sp)
   12ab8:	7442                	ld	s0,48(sp)
   12aba:	74a2                	ld	s1,40(sp)
   12abc:	7902                	ld	s2,32(sp)
   12abe:	69e2                	ld	s3,24(sp)
   12ac0:	6121                	addi	sp,sp,64
   12ac2:	8082                	ret
   12ac4:	4581                	li	a1,0
   12ac6:	854e                	mv	a0,s3
   12ac8:	b50fe0ef          	jal	ra,10e18 <_sbrk_r>
   12acc:	01093783          	ld	a5,16(s2)
   12ad0:	97a6                	add	a5,a5,s1
   12ad2:	fcf51ce3          	bne	a0,a5,12aaa <_malloc_trim_r+0x38>
   12ad6:	408005b3          	neg	a1,s0
   12ada:	854e                	mv	a0,s3
   12adc:	b3cfe0ef          	jal	ra,10e18 <_sbrk_r>
   12ae0:	57fd                	li	a5,-1
   12ae2:	02f51663          	bne	a0,a5,12b0e <_malloc_trim_r+0x9c>
   12ae6:	4581                	li	a1,0
   12ae8:	854e                	mv	a0,s3
   12aea:	b2efe0ef          	jal	ra,10e18 <_sbrk_r>
   12aee:	01093703          	ld	a4,16(s2)
   12af2:	46fd                	li	a3,31
   12af4:	40e507b3          	sub	a5,a0,a4
   12af8:	faf6d9e3          	ble	a5,a3,12aaa <_malloc_trim_r+0x38>
   12afc:	8381b683          	ld	a3,-1992(gp) # 1d4b0 <__malloc_sbrk_base>
   12b00:	0017e793          	ori	a5,a5,1
   12b04:	e71c                	sd	a5,8(a4)
   12b06:	8d15                	sub	a0,a0,a3
   12b08:	8aa1a423          	sw	a0,-1880(gp) # 1d520 <__malloc_current_mallinfo>
   12b0c:	bf79                	j	12aaa <_malloc_trim_r+0x38>
   12b0e:	01093783          	ld	a5,16(s2)
   12b12:	8c81                	sub	s1,s1,s0
   12b14:	0014e493          	ori	s1,s1,1
   12b18:	e784                	sd	s1,8(a5)
   12b1a:	8a81a783          	lw	a5,-1880(gp) # 1d520 <__malloc_current_mallinfo>
   12b1e:	854e                	mv	a0,s3
   12b20:	4087843b          	subw	s0,a5,s0
   12b24:	8a81a423          	sw	s0,-1880(gp) # 1d520 <__malloc_current_mallinfo>
   12b28:	ffffe097          	auipc	ra,0xffffe
   12b2c:	216080e7          	jalr	534(ra) # 10d3e <__malloc_unlock>
   12b30:	4505                	li	a0,1
   12b32:	b751                	j	12ab6 <_malloc_trim_r+0x44>

0000000000012b34 <_free_r>:
   12b34:	1a058c63          	beqz	a1,12cec <_free_r+0x1b8>
   12b38:	1101                	addi	sp,sp,-32
   12b3a:	e822                	sd	s0,16(sp)
   12b3c:	e426                	sd	s1,8(sp)
   12b3e:	842a                	mv	s0,a0
   12b40:	84ae                	mv	s1,a1
   12b42:	ec06                	sd	ra,24(sp)
   12b44:	ffffe097          	auipc	ra,0xffffe
   12b48:	1f8080e7          	jalr	504(ra) # 10d3c <__malloc_lock>
   12b4c:	ff84b503          	ld	a0,-8(s1)
   12b50:	6675                	lui	a2,0x1d
   12b52:	ff048693          	addi	a3,s1,-16
   12b56:	ffe57793          	andi	a5,a0,-2
   12b5a:	ac060813          	addi	a6,a2,-1344 # 1cac0 <__malloc_av_>
   12b5e:	00f685b3          	add	a1,a3,a5
   12b62:	6598                	ld	a4,8(a1)
   12b64:	01083803          	ld	a6,16(a6)
   12b68:	ac060613          	addi	a2,a2,-1344
   12b6c:	9b71                	andi	a4,a4,-4
   12b6e:	8905                	andi	a0,a0,1
   12b70:	04b81263          	bne	a6,a1,12bb4 <_free_r+0x80>
   12b74:	97ba                	add	a5,a5,a4
   12b76:	e909                	bnez	a0,12b88 <_free_r+0x54>
   12b78:	ff04b703          	ld	a4,-16(s1)
   12b7c:	8e99                	sub	a3,a3,a4
   12b7e:	6a8c                	ld	a1,16(a3)
   12b80:	97ba                	add	a5,a5,a4
   12b82:	6e98                	ld	a4,24(a3)
   12b84:	ed98                	sd	a4,24(a1)
   12b86:	eb0c                	sd	a1,16(a4)
   12b88:	0017e713          	ori	a4,a5,1
   12b8c:	e698                	sd	a4,8(a3)
   12b8e:	8401b703          	ld	a4,-1984(gp) # 1d4b8 <__malloc_trim_threshold>
   12b92:	ea14                	sd	a3,16(a2)
   12b94:	00e7e963          	bltu	a5,a4,12ba6 <_free_r+0x72>
   12b98:	8581b583          	ld	a1,-1960(gp) # 1d4d0 <__malloc_top_pad>
   12b9c:	8522                	mv	a0,s0
   12b9e:	00000097          	auipc	ra,0x0
   12ba2:	ed4080e7          	jalr	-300(ra) # 12a72 <_malloc_trim_r>
   12ba6:	8522                	mv	a0,s0
   12ba8:	6442                	ld	s0,16(sp)
   12baa:	60e2                	ld	ra,24(sp)
   12bac:	64a2                	ld	s1,8(sp)
   12bae:	6105                	addi	sp,sp,32
   12bb0:	98efe06f          	j	10d3e <__malloc_unlock>
   12bb4:	e598                	sd	a4,8(a1)
   12bb6:	4801                	li	a6,0
   12bb8:	e10d                	bnez	a0,12bda <_free_r+0xa6>
   12bba:	ff04b503          	ld	a0,-16(s1)
   12bbe:	68f5                	lui	a7,0x1d
   12bc0:	ad088893          	addi	a7,a7,-1328 # 1cad0 <__malloc_av_+0x10>
   12bc4:	8e89                	sub	a3,a3,a0
   12bc6:	97aa                	add	a5,a5,a0
   12bc8:	6a88                	ld	a0,16(a3)
   12bca:	07150e63          	beq	a0,a7,12c46 <_free_r+0x112>
   12bce:	0186b883          	ld	a7,24(a3)
   12bd2:	01153c23          	sd	a7,24(a0)
   12bd6:	00a8b823          	sd	a0,16(a7)
   12bda:	00e58533          	add	a0,a1,a4
   12bde:	6508                	ld	a0,8(a0)
   12be0:	8905                	andi	a0,a0,1
   12be2:	ed19                	bnez	a0,12c00 <_free_r+0xcc>
   12be4:	97ba                	add	a5,a5,a4
   12be6:	6998                	ld	a4,16(a1)
   12be8:	06081163          	bnez	a6,12c4a <_free_r+0x116>
   12bec:	6575                	lui	a0,0x1d
   12bee:	ad050513          	addi	a0,a0,-1328 # 1cad0 <__malloc_av_+0x10>
   12bf2:	04a71c63          	bne	a4,a0,12c4a <_free_r+0x116>
   12bf6:	f614                	sd	a3,40(a2)
   12bf8:	f214                	sd	a3,32(a2)
   12bfa:	ee98                	sd	a4,24(a3)
   12bfc:	ea98                	sd	a4,16(a3)
   12bfe:	4805                	li	a6,1
   12c00:	0017e713          	ori	a4,a5,1
   12c04:	e698                	sd	a4,8(a3)
   12c06:	00f68733          	add	a4,a3,a5
   12c0a:	e31c                	sd	a5,0(a4)
   12c0c:	f8081de3          	bnez	a6,12ba6 <_free_r+0x72>
   12c10:	1ff00713          	li	a4,511
   12c14:	02f76f63          	bltu	a4,a5,12c52 <_free_r+0x11e>
   12c18:	838d                	srli	a5,a5,0x3
   12c1a:	2781                	sext.w	a5,a5
   12c1c:	4027d59b          	sraiw	a1,a5,0x2
   12c20:	4705                	li	a4,1
   12c22:	00b71733          	sll	a4,a4,a1
   12c26:	2785                	addiw	a5,a5,1
   12c28:	660c                	ld	a1,8(a2)
   12c2a:	0017979b          	slliw	a5,a5,0x1
   12c2e:	078e                	slli	a5,a5,0x3
   12c30:	97b2                	add	a5,a5,a2
   12c32:	8f4d                	or	a4,a4,a1
   12c34:	e618                	sd	a4,8(a2)
   12c36:	6398                	ld	a4,0(a5)
   12c38:	ff078613          	addi	a2,a5,-16
   12c3c:	ee90                	sd	a2,24(a3)
   12c3e:	ea98                	sd	a4,16(a3)
   12c40:	e394                	sd	a3,0(a5)
   12c42:	ef14                	sd	a3,24(a4)
   12c44:	b78d                	j	12ba6 <_free_r+0x72>
   12c46:	4805                	li	a6,1
   12c48:	bf49                	j	12bda <_free_r+0xa6>
   12c4a:	6d8c                	ld	a1,24(a1)
   12c4c:	ef0c                	sd	a1,24(a4)
   12c4e:	e998                	sd	a4,16(a1)
   12c50:	bf45                	j	12c00 <_free_r+0xcc>
   12c52:	0097d593          	srli	a1,a5,0x9
   12c56:	4711                	li	a4,4
   12c58:	02b76e63          	bltu	a4,a1,12c94 <_free_r+0x160>
   12c5c:	0067d713          	srli	a4,a5,0x6
   12c60:	0387071b          	addiw	a4,a4,56
   12c64:	0017059b          	addiw	a1,a4,1
   12c68:	0015959b          	slliw	a1,a1,0x1
   12c6c:	058e                	slli	a1,a1,0x3
   12c6e:	95b2                	add	a1,a1,a2
   12c70:	ff058513          	addi	a0,a1,-16
   12c74:	618c                	ld	a1,0(a1)
   12c76:	06b51563          	bne	a0,a1,12ce0 <_free_r+0x1ac>
   12c7a:	4785                	li	a5,1
   12c7c:	4027571b          	sraiw	a4,a4,0x2
   12c80:	00e79733          	sll	a4,a5,a4
   12c84:	661c                	ld	a5,8(a2)
   12c86:	8f5d                	or	a4,a4,a5
   12c88:	e618                	sd	a4,8(a2)
   12c8a:	ee88                	sd	a0,24(a3)
   12c8c:	ea8c                	sd	a1,16(a3)
   12c8e:	e914                	sd	a3,16(a0)
   12c90:	ed94                	sd	a3,24(a1)
   12c92:	bf11                	j	12ba6 <_free_r+0x72>
   12c94:	4751                	li	a4,20
   12c96:	00b76563          	bltu	a4,a1,12ca0 <_free_r+0x16c>
   12c9a:	05b5871b          	addiw	a4,a1,91
   12c9e:	b7d9                	j	12c64 <_free_r+0x130>
   12ca0:	05400713          	li	a4,84
   12ca4:	00b76763          	bltu	a4,a1,12cb2 <_free_r+0x17e>
   12ca8:	00c7d713          	srli	a4,a5,0xc
   12cac:	06e7071b          	addiw	a4,a4,110
   12cb0:	bf55                	j	12c64 <_free_r+0x130>
   12cb2:	15400713          	li	a4,340
   12cb6:	00b76763          	bltu	a4,a1,12cc4 <_free_r+0x190>
   12cba:	00f7d713          	srli	a4,a5,0xf
   12cbe:	0777071b          	addiw	a4,a4,119
   12cc2:	b74d                	j	12c64 <_free_r+0x130>
   12cc4:	55400513          	li	a0,1364
   12cc8:	07e00713          	li	a4,126
   12ccc:	f8b56ce3          	bltu	a0,a1,12c64 <_free_r+0x130>
   12cd0:	0127d713          	srli	a4,a5,0x12
   12cd4:	07c7071b          	addiw	a4,a4,124
   12cd8:	b771                	j	12c64 <_free_r+0x130>
   12cda:	698c                	ld	a1,16(a1)
   12cdc:	00b50663          	beq	a0,a1,12ce8 <_free_r+0x1b4>
   12ce0:	6598                	ld	a4,8(a1)
   12ce2:	9b71                	andi	a4,a4,-4
   12ce4:	fee7ebe3          	bltu	a5,a4,12cda <_free_r+0x1a6>
   12ce8:	6d88                	ld	a0,24(a1)
   12cea:	b745                	j	12c8a <_free_r+0x156>
   12cec:	8082                	ret

0000000000012cee <__sfvwrite_r>:
   12cee:	6a1c                	ld	a5,16(a2)
   12cf0:	e781                	bnez	a5,12cf8 <__sfvwrite_r+0xa>
   12cf2:	4781                	li	a5,0
   12cf4:	853e                	mv	a0,a5
   12cf6:	8082                	ret
   12cf8:	0105d783          	lhu	a5,16(a1)
   12cfc:	7119                	addi	sp,sp,-128
   12cfe:	f8a2                	sd	s0,112(sp)
   12d00:	f0ca                	sd	s2,96(sp)
   12d02:	e8d2                	sd	s4,80(sp)
   12d04:	fc86                	sd	ra,120(sp)
   12d06:	f4a6                	sd	s1,104(sp)
   12d08:	ecce                	sd	s3,88(sp)
   12d0a:	e4d6                	sd	s5,72(sp)
   12d0c:	e0da                	sd	s6,64(sp)
   12d0e:	fc5e                	sd	s7,56(sp)
   12d10:	f862                	sd	s8,48(sp)
   12d12:	f466                	sd	s9,40(sp)
   12d14:	f06a                	sd	s10,32(sp)
   12d16:	ec6e                	sd	s11,24(sp)
   12d18:	8ba1                	andi	a5,a5,8
   12d1a:	8a32                	mv	s4,a2
   12d1c:	842e                	mv	s0,a1
   12d1e:	892a                	mv	s2,a0
   12d20:	c3d5                	beqz	a5,12dc4 <__sfvwrite_r+0xd6>
   12d22:	6d9c                	ld	a5,24(a1)
   12d24:	c3c5                	beqz	a5,12dc4 <__sfvwrite_r+0xd6>
   12d26:	01045783          	lhu	a5,16(s0)
   12d2a:	000a3983          	ld	s3,0(s4)
   12d2e:	0027f713          	andi	a4,a5,2
   12d32:	0e071c63          	bnez	a4,12e2a <__sfvwrite_r+0x13c>
   12d36:	8b85                	andi	a5,a5,1
   12d38:	4a81                	li	s5,0
   12d3a:	16078863          	beqz	a5,12eaa <__sfvwrite_r+0x1bc>
   12d3e:	4501                	li	a0,0
   12d40:	4b81                	li	s7,0
   12d42:	4b01                	li	s6,0
   12d44:	260b0063          	beqz	s6,12fa4 <__sfvwrite_r+0x2b6>
   12d48:	e919                	bnez	a0,12d5e <__sfvwrite_r+0x70>
   12d4a:	865a                	mv	a2,s6
   12d4c:	45a9                	li	a1,10
   12d4e:	855e                	mv	a0,s7
   12d50:	5d5010ef          	jal	ra,14b24 <memchr>
   12d54:	24050f63          	beqz	a0,12fb2 <__sfvwrite_r+0x2c4>
   12d58:	0505                	addi	a0,a0,1
   12d5a:	41750abb          	subw	s5,a0,s7
   12d5e:	8c56                	mv	s8,s5
   12d60:	015b7363          	bleu	s5,s6,12d66 <__sfvwrite_r+0x78>
   12d64:	8c5a                	mv	s8,s6
   12d66:	6008                	ld	a0,0(s0)
   12d68:	6c1c                	ld	a5,24(s0)
   12d6a:	5014                	lw	a3,32(s0)
   12d6c:	24a7f663          	bleu	a0,a5,12fb8 <__sfvwrite_r+0x2ca>
   12d70:	4444                	lw	s1,12(s0)
   12d72:	9cb5                	addw	s1,s1,a3
   12d74:	2584d263          	ble	s8,s1,12fb8 <__sfvwrite_r+0x2ca>
   12d78:	85de                	mv	a1,s7
   12d7a:	8626                	mv	a2,s1
   12d7c:	685010ef          	jal	ra,14c00 <memmove>
   12d80:	601c                	ld	a5,0(s0)
   12d82:	85a2                	mv	a1,s0
   12d84:	854a                	mv	a0,s2
   12d86:	97a6                	add	a5,a5,s1
   12d88:	e01c                	sd	a5,0(s0)
   12d8a:	00000097          	auipc	ra,0x0
   12d8e:	a94080e7          	jalr	-1388(ra) # 1281e <_fflush_r>
   12d92:	10051463          	bnez	a0,12e9a <__sfvwrite_r+0x1ac>
   12d96:	409a8abb          	subw	s5,s5,s1
   12d9a:	4505                	li	a0,1
   12d9c:	000a9963          	bnez	s5,12dae <__sfvwrite_r+0xc0>
   12da0:	85a2                	mv	a1,s0
   12da2:	854a                	mv	a0,s2
   12da4:	00000097          	auipc	ra,0x0
   12da8:	a7a080e7          	jalr	-1414(ra) # 1281e <_fflush_r>
   12dac:	e57d                	bnez	a0,12e9a <__sfvwrite_r+0x1ac>
   12dae:	010a3783          	ld	a5,16(s4)
   12db2:	9ba6                	add	s7,s7,s1
   12db4:	409b0b33          	sub	s6,s6,s1
   12db8:	409784b3          	sub	s1,a5,s1
   12dbc:	009a3823          	sd	s1,16(s4)
   12dc0:	f0d1                	bnez	s1,12d44 <__sfvwrite_r+0x56>
   12dc2:	a099                	j	12e08 <__sfvwrite_r+0x11a>
   12dc4:	85a2                	mv	a1,s0
   12dc6:	854a                	mv	a0,s2
   12dc8:	ef6ff0ef          	jal	ra,124be <__swsetup_r>
   12dcc:	57fd                	li	a5,-1
   12dce:	dd21                	beqz	a0,12d26 <__sfvwrite_r+0x38>
   12dd0:	a82d                	j	12e0a <__sfvwrite_r+0x11c>
   12dd2:	0009ba83          	ld	s5,0(s3)
   12dd6:	0089b483          	ld	s1,8(s3)
   12dda:	09c1                	addi	s3,s3,16
   12ddc:	d8fd                	beqz	s1,12dd2 <__sfvwrite_r+0xe4>
   12dde:	86a6                	mv	a3,s1
   12de0:	009b7363          	bleu	s1,s6,12de6 <__sfvwrite_r+0xf8>
   12de4:	86da                	mv	a3,s6
   12de6:	603c                	ld	a5,64(s0)
   12de8:	780c                	ld	a1,48(s0)
   12dea:	2681                	sext.w	a3,a3
   12dec:	8656                	mv	a2,s5
   12dee:	854a                	mv	a0,s2
   12df0:	9782                	jalr	a5
   12df2:	0aa05463          	blez	a0,12e9a <__sfvwrite_r+0x1ac>
   12df6:	010a3783          	ld	a5,16(s4)
   12dfa:	9aaa                	add	s5,s5,a0
   12dfc:	8c89                	sub	s1,s1,a0
   12dfe:	40a78533          	sub	a0,a5,a0
   12e02:	00aa3823          	sd	a0,16(s4)
   12e06:	f979                	bnez	a0,12ddc <__sfvwrite_r+0xee>
   12e08:	4781                	li	a5,0
   12e0a:	70e6                	ld	ra,120(sp)
   12e0c:	7446                	ld	s0,112(sp)
   12e0e:	74a6                	ld	s1,104(sp)
   12e10:	7906                	ld	s2,96(sp)
   12e12:	69e6                	ld	s3,88(sp)
   12e14:	6a46                	ld	s4,80(sp)
   12e16:	6aa6                	ld	s5,72(sp)
   12e18:	6b06                	ld	s6,64(sp)
   12e1a:	7be2                	ld	s7,56(sp)
   12e1c:	7c42                	ld	s8,48(sp)
   12e1e:	7ca2                	ld	s9,40(sp)
   12e20:	7d02                	ld	s10,32(sp)
   12e22:	6de2                	ld	s11,24(sp)
   12e24:	853e                	mv	a0,a5
   12e26:	6109                	addi	sp,sp,128
   12e28:	8082                	ret
   12e2a:	80000b37          	lui	s6,0x80000
   12e2e:	4a81                	li	s5,0
   12e30:	4481                	li	s1,0
   12e32:	c00b4b13          	xori	s6,s6,-1024
   12e36:	b75d                	j	12ddc <__sfvwrite_r+0xee>
   12e38:	0009ba83          	ld	s5,0(s3)
   12e3c:	0089bd03          	ld	s10,8(s3)
   12e40:	09c1                	addi	s3,s3,16
   12e42:	4444                	lw	s1,12(s0)
   12e44:	87a6                	mv	a5,s1
   12e46:	fe0d09e3          	beqz	s10,12e38 <__sfvwrite_r+0x14a>
   12e4a:	01045703          	lhu	a4,16(s0)
   12e4e:	6008                	ld	a0,0(s0)
   12e50:	20077693          	andi	a3,a4,512
   12e54:	0e068a63          	beqz	a3,12f48 <__sfvwrite_r+0x25a>
   12e58:	089d6963          	bltu	s10,s1,12eea <__sfvwrite_r+0x1fc>
   12e5c:	48077693          	andi	a3,a4,1152
   12e60:	c6c9                	beqz	a3,12eea <__sfvwrite_r+0x1fc>
   12e62:	5004                	lw	s1,32(s0)
   12e64:	6c0c                	ld	a1,24(s0)
   12e66:	029c04bb          	mulw	s1,s8,s1
   12e6a:	8d0d                	sub	a0,a0,a1
   12e6c:	00050d9b          	sext.w	s11,a0
   12e70:	001d8793          	addi	a5,s11,1
   12e74:	97ea                	add	a5,a5,s10
   12e76:	0394c4bb          	divw	s1,s1,s9
   12e7a:	00f4f563          	bleu	a5,s1,12e84 <__sfvwrite_r+0x196>
   12e7e:	2505                	addiw	a0,a0,1
   12e80:	01a504bb          	addw	s1,a0,s10
   12e84:	40077713          	andi	a4,a4,1024
   12e88:	cf49                	beqz	a4,12f22 <__sfvwrite_r+0x234>
   12e8a:	85a6                	mv	a1,s1
   12e8c:	854a                	mv	a0,s2
   12e8e:	917fd0ef          	jal	ra,107a4 <_malloc_r>
   12e92:	e515                	bnez	a0,12ebe <__sfvwrite_r+0x1d0>
   12e94:	47b1                	li	a5,12
   12e96:	00f92023          	sw	a5,0(s2)
   12e9a:	01045783          	lhu	a5,16(s0)
   12e9e:	0407e793          	ori	a5,a5,64
   12ea2:	00f41823          	sh	a5,16(s0)
   12ea6:	57fd                	li	a5,-1
   12ea8:	b78d                	j	12e0a <__sfvwrite_r+0x11c>
   12eaa:	80000b37          	lui	s6,0x80000
   12eae:	ffeb4b93          	xori	s7,s6,-2
   12eb2:	4d01                	li	s10,0
   12eb4:	fffb4b13          	not	s6,s6
   12eb8:	4c0d                	li	s8,3
   12eba:	4c89                	li	s9,2
   12ebc:	b759                	j	12e42 <__sfvwrite_r+0x154>
   12ebe:	6c0c                	ld	a1,24(s0)
   12ec0:	866e                	mv	a2,s11
   12ec2:	e42a                	sd	a0,8(sp)
   12ec4:	47d010ef          	jal	ra,14b40 <memcpy>
   12ec8:	01045703          	lhu	a4,16(s0)
   12ecc:	67a2                	ld	a5,8(sp)
   12ece:	b7f77713          	andi	a4,a4,-1153
   12ed2:	08076713          	ori	a4,a4,128
   12ed6:	00e41823          	sh	a4,16(s0)
   12eda:	ec1c                	sd	a5,24(s0)
   12edc:	d004                	sw	s1,32(s0)
   12ede:	97ee                	add	a5,a5,s11
   12ee0:	41b484bb          	subw	s1,s1,s11
   12ee4:	e01c                	sd	a5,0(s0)
   12ee6:	c444                	sw	s1,12(s0)
   12ee8:	87ea                	mv	a5,s10
   12eea:	84ea                	mv	s1,s10
   12eec:	00fd7363          	bleu	a5,s10,12ef2 <__sfvwrite_r+0x204>
   12ef0:	87ea                	mv	a5,s10
   12ef2:	6008                	ld	a0,0(s0)
   12ef4:	863e                	mv	a2,a5
   12ef6:	85d6                	mv	a1,s5
   12ef8:	e43e                	sd	a5,8(sp)
   12efa:	507010ef          	jal	ra,14c00 <memmove>
   12efe:	4458                	lw	a4,12(s0)
   12f00:	67a2                	ld	a5,8(sp)
   12f02:	9f1d                	subw	a4,a4,a5
   12f04:	c458                	sw	a4,12(s0)
   12f06:	6018                	ld	a4,0(s0)
   12f08:	97ba                	add	a5,a5,a4
   12f0a:	e01c                	sd	a5,0(s0)
   12f0c:	010a3783          	ld	a5,16(s4)
   12f10:	9aa6                	add	s5,s5,s1
   12f12:	409d0d33          	sub	s10,s10,s1
   12f16:	409784b3          	sub	s1,a5,s1
   12f1a:	009a3823          	sd	s1,16(s4)
   12f1e:	f095                	bnez	s1,12e42 <__sfvwrite_r+0x154>
   12f20:	b5e5                	j	12e08 <__sfvwrite_r+0x11a>
   12f22:	8626                	mv	a2,s1
   12f24:	854a                	mv	a0,s2
   12f26:	762020ef          	jal	ra,15688 <_realloc_r>
   12f2a:	87aa                	mv	a5,a0
   12f2c:	f55d                	bnez	a0,12eda <__sfvwrite_r+0x1ec>
   12f2e:	6c0c                	ld	a1,24(s0)
   12f30:	854a                	mv	a0,s2
   12f32:	00000097          	auipc	ra,0x0
   12f36:	c02080e7          	jalr	-1022(ra) # 12b34 <_free_r>
   12f3a:	01045783          	lhu	a5,16(s0)
   12f3e:	f7f7f793          	andi	a5,a5,-129
   12f42:	00f41823          	sh	a5,16(s0)
   12f46:	b7b9                	j	12e94 <__sfvwrite_r+0x1a6>
   12f48:	6c1c                	ld	a5,24(s0)
   12f4a:	00a7e563          	bltu	a5,a0,12f54 <__sfvwrite_r+0x266>
   12f4e:	5014                	lw	a3,32(s0)
   12f50:	02dd7963          	bleu	a3,s10,12f82 <__sfvwrite_r+0x294>
   12f54:	009d7363          	bleu	s1,s10,12f5a <__sfvwrite_r+0x26c>
   12f58:	84ea                	mv	s1,s10
   12f5a:	8626                	mv	a2,s1
   12f5c:	85d6                	mv	a1,s5
   12f5e:	4a3010ef          	jal	ra,14c00 <memmove>
   12f62:	445c                	lw	a5,12(s0)
   12f64:	4097873b          	subw	a4,a5,s1
   12f68:	601c                	ld	a5,0(s0)
   12f6a:	c458                	sw	a4,12(s0)
   12f6c:	97a6                	add	a5,a5,s1
   12f6e:	e01c                	sd	a5,0(s0)
   12f70:	ff51                	bnez	a4,12f0c <__sfvwrite_r+0x21e>
   12f72:	85a2                	mv	a1,s0
   12f74:	854a                	mv	a0,s2
   12f76:	00000097          	auipc	ra,0x0
   12f7a:	8a8080e7          	jalr	-1880(ra) # 1281e <_fflush_r>
   12f7e:	d559                	beqz	a0,12f0c <__sfvwrite_r+0x21e>
   12f80:	bf29                	j	12e9a <__sfvwrite_r+0x1ac>
   12f82:	87da                	mv	a5,s6
   12f84:	01abe363          	bltu	s7,s10,12f8a <__sfvwrite_r+0x29c>
   12f88:	87ea                	mv	a5,s10
   12f8a:	02d7c7bb          	divw	a5,a5,a3
   12f8e:	6038                	ld	a4,64(s0)
   12f90:	780c                	ld	a1,48(s0)
   12f92:	8656                	mv	a2,s5
   12f94:	854a                	mv	a0,s2
   12f96:	02d786bb          	mulw	a3,a5,a3
   12f9a:	9702                	jalr	a4
   12f9c:	84aa                	mv	s1,a0
   12f9e:	f6a047e3          	bgtz	a0,12f0c <__sfvwrite_r+0x21e>
   12fa2:	bde5                	j	12e9a <__sfvwrite_r+0x1ac>
   12fa4:	0009bb83          	ld	s7,0(s3)
   12fa8:	0089bb03          	ld	s6,8(s3)
   12fac:	4501                	li	a0,0
   12fae:	09c1                	addi	s3,s3,16
   12fb0:	bb51                	j	12d44 <__sfvwrite_r+0x56>
   12fb2:	001b0a9b          	addiw	s5,s6,1
   12fb6:	b365                	j	12d5e <__sfvwrite_r+0x70>
   12fb8:	00dc4b63          	blt	s8,a3,12fce <__sfvwrite_r+0x2e0>
   12fbc:	603c                	ld	a5,64(s0)
   12fbe:	780c                	ld	a1,48(s0)
   12fc0:	865e                	mv	a2,s7
   12fc2:	854a                	mv	a0,s2
   12fc4:	9782                	jalr	a5
   12fc6:	84aa                	mv	s1,a0
   12fc8:	dca047e3          	bgtz	a0,12d96 <__sfvwrite_r+0xa8>
   12fcc:	b5f9                	j	12e9a <__sfvwrite_r+0x1ac>
   12fce:	8662                	mv	a2,s8
   12fd0:	85de                	mv	a1,s7
   12fd2:	42f010ef          	jal	ra,14c00 <memmove>
   12fd6:	445c                	lw	a5,12(s0)
   12fd8:	84e2                	mv	s1,s8
   12fda:	418787bb          	subw	a5,a5,s8
   12fde:	c45c                	sw	a5,12(s0)
   12fe0:	601c                	ld	a5,0(s0)
   12fe2:	97e2                	add	a5,a5,s8
   12fe4:	e01c                	sd	a5,0(s0)
   12fe6:	bb45                	j	12d96 <__sfvwrite_r+0xa8>
	...

0000000000012fea <_fwalk>:
   12fea:	715d                	addi	sp,sp,-80
   12fec:	e0a2                	sd	s0,64(sp)
   12fee:	fc26                	sd	s1,56(sp)
   12ff0:	f052                	sd	s4,32(sp)
   12ff2:	ec56                	sd	s5,24(sp)
   12ff4:	e486                	sd	ra,72(sp)
   12ff6:	f84a                	sd	s2,48(sp)
   12ff8:	f44e                	sd	s3,40(sp)
   12ffa:	52050493          	addi	s1,a0,1312
   12ffe:	4401                	li	s0,0
   13000:	4a05                	li	s4,1
   13002:	5afd                	li	s5,-1
   13004:	e899                	bnez	s1,1301a <_fwalk+0x30>
   13006:	8522                	mv	a0,s0
   13008:	60a6                	ld	ra,72(sp)
   1300a:	6406                	ld	s0,64(sp)
   1300c:	74e2                	ld	s1,56(sp)
   1300e:	7942                	ld	s2,48(sp)
   13010:	79a2                	ld	s3,40(sp)
   13012:	7a02                	ld	s4,32(sp)
   13014:	6ae2                	ld	s5,24(sp)
   13016:	6161                	addi	sp,sp,80
   13018:	8082                	ret
   1301a:	0104b903          	ld	s2,16(s1)
   1301e:	0084a983          	lw	s3,8(s1)
   13022:	39fd                	addiw	s3,s3,-1
   13024:	0009d463          	bgez	s3,1302c <_fwalk+0x42>
   13028:	6084                	ld	s1,0(s1)
   1302a:	bfe9                	j	13004 <_fwalk+0x1a>
   1302c:	01095783          	lhu	a5,16(s2)
   13030:	00fa7c63          	bleu	a5,s4,13048 <_fwalk+0x5e>
   13034:	01291783          	lh	a5,18(s2)
   13038:	01578863          	beq	a5,s5,13048 <_fwalk+0x5e>
   1303c:	854a                	mv	a0,s2
   1303e:	e42e                	sd	a1,8(sp)
   13040:	9582                	jalr	a1
   13042:	65a2                	ld	a1,8(sp)
   13044:	8c49                	or	s0,s0,a0
   13046:	2401                	sext.w	s0,s0
   13048:	0b090913          	addi	s2,s2,176
   1304c:	bfd9                	j	13022 <_fwalk+0x38>

000000000001304e <_fwalk_reent>:
   1304e:	715d                	addi	sp,sp,-80
   13050:	e0a2                	sd	s0,64(sp)
   13052:	fc26                	sd	s1,56(sp)
   13054:	f052                	sd	s4,32(sp)
   13056:	ec56                	sd	s5,24(sp)
   13058:	e85a                	sd	s6,16(sp)
   1305a:	e45e                	sd	s7,8(sp)
   1305c:	e486                	sd	ra,72(sp)
   1305e:	f84a                	sd	s2,48(sp)
   13060:	f44e                	sd	s3,40(sp)
   13062:	8a2a                	mv	s4,a0
   13064:	8aae                	mv	s5,a1
   13066:	52050493          	addi	s1,a0,1312
   1306a:	4401                	li	s0,0
   1306c:	4b05                	li	s6,1
   1306e:	5bfd                	li	s7,-1
   13070:	ec89                	bnez	s1,1308a <_fwalk_reent+0x3c>
   13072:	8522                	mv	a0,s0
   13074:	60a6                	ld	ra,72(sp)
   13076:	6406                	ld	s0,64(sp)
   13078:	74e2                	ld	s1,56(sp)
   1307a:	7942                	ld	s2,48(sp)
   1307c:	79a2                	ld	s3,40(sp)
   1307e:	7a02                	ld	s4,32(sp)
   13080:	6ae2                	ld	s5,24(sp)
   13082:	6b42                	ld	s6,16(sp)
   13084:	6ba2                	ld	s7,8(sp)
   13086:	6161                	addi	sp,sp,80
   13088:	8082                	ret
   1308a:	0104b903          	ld	s2,16(s1)
   1308e:	0084a983          	lw	s3,8(s1)
   13092:	39fd                	addiw	s3,s3,-1
   13094:	0009d463          	bgez	s3,1309c <_fwalk_reent+0x4e>
   13098:	6084                	ld	s1,0(s1)
   1309a:	bfd9                	j	13070 <_fwalk_reent+0x22>
   1309c:	01095783          	lhu	a5,16(s2)
   130a0:	00fb7b63          	bleu	a5,s6,130b6 <_fwalk_reent+0x68>
   130a4:	01291783          	lh	a5,18(s2)
   130a8:	01778763          	beq	a5,s7,130b6 <_fwalk_reent+0x68>
   130ac:	85ca                	mv	a1,s2
   130ae:	8552                	mv	a0,s4
   130b0:	9a82                	jalr	s5
   130b2:	8c49                	or	s0,s0,a0
   130b4:	2401                	sext.w	s0,s0
   130b6:	0b090913          	addi	s2,s2,176
   130ba:	bfe1                	j	13092 <_fwalk_reent+0x44>

00000000000130bc <eclear>:
   130bc:	01450793          	addi	a5,a0,20
   130c0:	0509                	addi	a0,a0,2
   130c2:	fe051f23          	sh	zero,-2(a0)
   130c6:	fef51de3          	bne	a0,a5,130c0 <eclear+0x4>
   130ca:	8082                	ret

00000000000130cc <emov>:
   130cc:	01450793          	addi	a5,a0,20
   130d0:	0509                	addi	a0,a0,2
   130d2:	ffe55703          	lhu	a4,-2(a0)
   130d6:	0589                	addi	a1,a1,2
   130d8:	fee59f23          	sh	a4,-2(a1)
   130dc:	fea79ae3          	bne	a5,a0,130d0 <emov+0x4>
   130e0:	8082                	ret

00000000000130e2 <ecleaz>:
   130e2:	01a50793          	addi	a5,a0,26
   130e6:	0509                	addi	a0,a0,2
   130e8:	fe051f23          	sh	zero,-2(a0)
   130ec:	fef51de3          	bne	a0,a5,130e6 <ecleaz+0x4>
   130f0:	8082                	ret

00000000000130f2 <emovz>:
   130f2:	01850713          	addi	a4,a0,24
   130f6:	87ae                	mv	a5,a1
   130f8:	0509                	addi	a0,a0,2
   130fa:	ffe55683          	lhu	a3,-2(a0)
   130fe:	0789                	addi	a5,a5,2
   13100:	fed79f23          	sh	a3,-2(a5)
   13104:	fea71ae3          	bne	a4,a0,130f8 <emovz+0x6>
   13108:	00059c23          	sh	zero,24(a1)
   1310c:	8082                	ret

000000000001310e <ecmpm>:
   1310e:	00450793          	addi	a5,a0,4
   13112:	0591                	addi	a1,a1,4
   13114:	0569                	addi	a0,a0,26
   13116:	0789                	addi	a5,a5,2
   13118:	0589                	addi	a1,a1,2
   1311a:	ffe7d683          	lhu	a3,-2(a5)
   1311e:	ffe5d703          	lhu	a4,-2(a1)
   13122:	00e69663          	bne	a3,a4,1312e <ecmpm+0x20>
   13126:	fef518e3          	bne	a0,a5,13116 <ecmpm+0x8>
   1312a:	4501                	li	a0,0
   1312c:	8082                	ret
   1312e:	4505                	li	a0,1
   13130:	00d76363          	bltu	a4,a3,13136 <ecmpm+0x28>
   13134:	557d                	li	a0,-1
   13136:	8082                	ret

0000000000013138 <eshdn1>:
   13138:	00450693          	addi	a3,a0,4
   1313c:	4781                	li	a5,0
   1313e:	0569                	addi	a0,a0,26
   13140:	7661                	lui	a2,0xffff8
   13142:	0006d703          	lhu	a4,0(a3)
   13146:	00177593          	andi	a1,a4,1
   1314a:	c199                	beqz	a1,13150 <eshdn1+0x18>
   1314c:	0017e793          	ori	a5,a5,1
   13150:	0027f593          	andi	a1,a5,2
   13154:	8305                	srli	a4,a4,0x1
   13156:	e999                	bnez	a1,1316c <eshdn1+0x34>
   13158:	0017979b          	slliw	a5,a5,0x1
   1315c:	00e69023          	sh	a4,0(a3)
   13160:	17c2                	slli	a5,a5,0x30
   13162:	0689                	addi	a3,a3,2
   13164:	93c1                	srli	a5,a5,0x30
   13166:	fcd51ee3          	bne	a0,a3,13142 <eshdn1+0xa>
   1316a:	8082                	ret
   1316c:	8f51                	or	a4,a4,a2
   1316e:	b7ed                	j	13158 <eshdn1+0x20>

0000000000013170 <eshup1>:
   13170:	01650693          	addi	a3,a0,22
   13174:	4701                	li	a4,0
   13176:	0026d783          	lhu	a5,2(a3)
   1317a:	0107961b          	slliw	a2,a5,0x10
   1317e:	4106561b          	sraiw	a2,a2,0x10
   13182:	00065463          	bgez	a2,1318a <eshup1+0x1a>
   13186:	00176713          	ori	a4,a4,1
   1318a:	0017979b          	slliw	a5,a5,0x1
   1318e:	17c2                	slli	a5,a5,0x30
   13190:	00277613          	andi	a2,a4,2
   13194:	93c1                	srli	a5,a5,0x30
   13196:	ea19                	bnez	a2,131ac <eshup1+0x3c>
   13198:	0017171b          	slliw	a4,a4,0x1
   1319c:	00f69123          	sh	a5,2(a3)
   131a0:	1742                	slli	a4,a4,0x30
   131a2:	16f9                	addi	a3,a3,-2
   131a4:	9341                	srli	a4,a4,0x30
   131a6:	fcd518e3          	bne	a0,a3,13176 <eshup1+0x6>
   131aa:	8082                	ret
   131ac:	0017e793          	ori	a5,a5,1
   131b0:	b7e5                	j	13198 <eshup1+0x28>

00000000000131b2 <eshdn8>:
   131b2:	00450793          	addi	a5,a0,4
   131b6:	4701                	li	a4,0
   131b8:	0569                	addi	a0,a0,26
   131ba:	0007d683          	lhu	a3,0(a5)
   131be:	0789                	addi	a5,a5,2
   131c0:	0086d61b          	srliw	a2,a3,0x8
   131c4:	8f51                	or	a4,a4,a2
   131c6:	fee79f23          	sh	a4,-2(a5)
   131ca:	0086971b          	slliw	a4,a3,0x8
   131ce:	1742                	slli	a4,a4,0x30
   131d0:	9341                	srli	a4,a4,0x30
   131d2:	fef514e3          	bne	a0,a5,131ba <eshdn8+0x8>
   131d6:	8082                	ret

00000000000131d8 <eshup8>:
   131d8:	01650793          	addi	a5,a0,22
   131dc:	4701                	li	a4,0
   131de:	0027d683          	lhu	a3,2(a5)
   131e2:	17f9                	addi	a5,a5,-2
   131e4:	00869613          	slli	a2,a3,0x8
   131e8:	8f51                	or	a4,a4,a2
   131ea:	00e79223          	sh	a4,4(a5)
   131ee:	0086d713          	srli	a4,a3,0x8
   131f2:	fef516e3          	bne	a0,a5,131de <eshup8+0x6>
   131f6:	8082                	ret

00000000000131f8 <eshup6>:
   131f8:	00450793          	addi	a5,a0,4
   131fc:	01850713          	addi	a4,a0,24
   13200:	0789                	addi	a5,a5,2
   13202:	0007d683          	lhu	a3,0(a5)
   13206:	fed79f23          	sh	a3,-2(a5)
   1320a:	fef71be3          	bne	a4,a5,13200 <eshup6+0x8>
   1320e:	00051c23          	sh	zero,24(a0)
   13212:	8082                	ret

0000000000013214 <eshdn6>:
   13214:	01850793          	addi	a5,a0,24
   13218:	01a50713          	addi	a4,a0,26
   1321c:	00450693          	addi	a3,a0,4
   13220:	17f9                	addi	a5,a5,-2
   13222:	0007d603          	lhu	a2,0(a5)
   13226:	1779                	addi	a4,a4,-2
   13228:	00c71023          	sh	a2,0(a4) # 20400000 <__global_pointer$+0x203e2388>
   1322c:	fef69ae3          	bne	a3,a5,13220 <eshdn6+0xc>
   13230:	00051223          	sh	zero,4(a0)
   13234:	8082                	ret

0000000000013236 <eaddm>:
   13236:	05e1                	addi	a1,a1,24
   13238:	01650713          	addi	a4,a0,22
   1323c:	4681                	li	a3,0
   1323e:	0005d783          	lhu	a5,0(a1)
   13242:	1779                	addi	a4,a4,-2
   13244:	15f9                	addi	a1,a1,-2
   13246:	97b6                	add	a5,a5,a3
   13248:	00475683          	lhu	a3,4(a4)
   1324c:	97b6                	add	a5,a5,a3
   1324e:	00f59123          	sh	a5,2(a1)
   13252:	83c1                	srli	a5,a5,0x10
   13254:	0017f693          	andi	a3,a5,1
   13258:	fee513e3          	bne	a0,a4,1323e <eaddm+0x8>
   1325c:	8082                	ret

000000000001325e <esubm>:
   1325e:	05e1                	addi	a1,a1,24
   13260:	01650713          	addi	a4,a0,22
   13264:	4681                	li	a3,0
   13266:	0005d783          	lhu	a5,0(a1)
   1326a:	00275603          	lhu	a2,2(a4)
   1326e:	1779                	addi	a4,a4,-2
   13270:	15f9                	addi	a1,a1,-2
   13272:	8f91                	sub	a5,a5,a2
   13274:	8f95                	sub	a5,a5,a3
   13276:	00f59123          	sh	a5,2(a1)
   1327a:	83c1                	srli	a5,a5,0x10
   1327c:	0017f693          	andi	a3,a5,1
   13280:	fee513e3          	bne	a0,a4,13266 <esubm+0x8>
   13284:	8082                	ret

0000000000013286 <m16m>:
   13286:	1101                	addi	sp,sp,-32
   13288:	6341                	lui	t1,0x10
   1328a:	01858893          	addi	a7,a1,24
   1328e:	00011b23          	sh	zero,22(sp)
   13292:	00011c23          	sh	zero,24(sp)
   13296:	0591                	addi	a1,a1,4
   13298:	0834                	addi	a3,sp,24
   1329a:	137d                	addi	t1,t1,-1
   1329c:	0008d703          	lhu	a4,0(a7)
   132a0:	16f9                	addi	a3,a3,-2
   132a2:	18f9                	addi	a7,a7,-2
   132a4:	e705                	bnez	a4,132cc <m16m+0x46>
   132a6:	fe069f23          	sh	zero,-2(a3)
   132aa:	ff1599e3          	bne	a1,a7,1329c <m16m+0x16>
   132ae:	4791                	li	a5,4
   132b0:	4769                	li	a4,26
   132b2:	00f105b3          	add	a1,sp,a5
   132b6:	0005d583          	lhu	a1,0(a1)
   132ba:	00f606b3          	add	a3,a2,a5
   132be:	0789                	addi	a5,a5,2
   132c0:	00b69023          	sh	a1,0(a3)
   132c4:	fee797e3          	bne	a5,a4,132b2 <m16m+0x2c>
   132c8:	6105                	addi	sp,sp,32
   132ca:	8082                	ret
   132cc:	02a70733          	mul	a4,a4,a0
   132d0:	0026d803          	lhu	a6,2(a3)
   132d4:	006777b3          	and	a5,a4,t1
   132d8:	97c2                	add	a5,a5,a6
   132da:	0107d813          	srli	a6,a5,0x10
   132de:	00f69123          	sh	a5,2(a3)
   132e2:	01075793          	srli	a5,a4,0x10
   132e6:	0006d703          	lhu	a4,0(a3)
   132ea:	97ba                	add	a5,a5,a4
   132ec:	97c2                	add	a5,a5,a6
   132ee:	00f69023          	sh	a5,0(a3)
   132f2:	83c1                	srli	a5,a5,0x10
   132f4:	fef69f23          	sh	a5,-2(a3)
   132f8:	bf4d                	j	132aa <m16m+0x24>

00000000000132fa <eisnan>:
   132fa:	01255783          	lhu	a5,18(a0)
   132fe:	fff7c793          	not	a5,a5
   13302:	03179713          	slli	a4,a5,0x31
   13306:	eb09                	bnez	a4,13318 <eisnan+0x1e>
   13308:	01250793          	addi	a5,a0,18
   1330c:	0509                	addi	a0,a0,2
   1330e:	ffe55703          	lhu	a4,-2(a0)
   13312:	e709                	bnez	a4,1331c <eisnan+0x22>
   13314:	fea79ce3          	bne	a5,a0,1330c <eisnan+0x12>
   13318:	4501                	li	a0,0
   1331a:	8082                	ret
   1331c:	4505                	li	a0,1
   1331e:	8082                	ret

0000000000013320 <eisneg>:
   13320:	1141                	addi	sp,sp,-16
   13322:	e022                	sd	s0,0(sp)
   13324:	e406                	sd	ra,8(sp)
   13326:	842a                	mv	s0,a0
   13328:	00000097          	auipc	ra,0x0
   1332c:	fd2080e7          	jalr	-46(ra) # 132fa <eisnan>
   13330:	e901                	bnez	a0,13340 <eisneg+0x20>
   13332:	01344503          	lbu	a0,19(s0)
   13336:	811d                	srli	a0,a0,0x7
   13338:	60a2                	ld	ra,8(sp)
   1333a:	6402                	ld	s0,0(sp)
   1333c:	0141                	addi	sp,sp,16
   1333e:	8082                	ret
   13340:	4501                	li	a0,0
   13342:	bfdd                	j	13338 <eisneg+0x18>

0000000000013344 <emovi>:
   13344:	01251783          	lh	a5,18(a0)
   13348:	1101                	addi	sp,sp,-32
   1334a:	ec06                	sd	ra,24(sp)
   1334c:	e822                	sd	s0,16(sp)
   1334e:	e426                	sd	s1,8(sp)
   13350:	e04a                	sd	s2,0(sp)
   13352:	0407d963          	bgez	a5,133a4 <emovi+0x60>
   13356:	57fd                	li	a5,-1
   13358:	00f59023          	sh	a5,0(a1)
   1335c:	01255703          	lhu	a4,18(a0)
   13360:	67a1                	lui	a5,0x8
   13362:	17fd                	addi	a5,a5,-1
   13364:	8f7d                	and	a4,a4,a5
   13366:	00e59123          	sh	a4,2(a1)
   1336a:	01050913          	addi	s2,a0,16
   1336e:	04f71863          	bne	a4,a5,133be <emovi+0x7a>
   13372:	842e                	mv	s0,a1
   13374:	84aa                	mv	s1,a0
   13376:	f85ff0ef          	jal	ra,132fa <eisnan>
   1337a:	c905                	beqz	a0,133aa <emovi+0x66>
   1337c:	00640793          	addi	a5,s0,6
   13380:	00041223          	sh	zero,4(s0)
   13384:	ffc48513          	addi	a0,s1,-4
   13388:	1979                	addi	s2,s2,-2
   1338a:	00295703          	lhu	a4,2(s2)
   1338e:	0789                	addi	a5,a5,2
   13390:	fee79f23          	sh	a4,-2(a5) # 7ffe <_start-0x80b2>
   13394:	fea91ae3          	bne	s2,a0,13388 <emovi+0x44>
   13398:	60e2                	ld	ra,24(sp)
   1339a:	6442                	ld	s0,16(sp)
   1339c:	64a2                	ld	s1,8(sp)
   1339e:	6902                	ld	s2,0(sp)
   133a0:	6105                	addi	sp,sp,32
   133a2:	8082                	ret
   133a4:	00059023          	sh	zero,0(a1)
   133a8:	bf55                	j	1335c <emovi+0x18>
   133aa:	00440793          	addi	a5,s0,4
   133ae:	01a40593          	addi	a1,s0,26
   133b2:	0789                	addi	a5,a5,2
   133b4:	fe079f23          	sh	zero,-2(a5)
   133b8:	feb79de3          	bne	a5,a1,133b2 <emovi+0x6e>
   133bc:	bff1                	j	13398 <emovi+0x54>
   133be:	00658793          	addi	a5,a1,6
   133c2:	00059223          	sh	zero,4(a1)
   133c6:	1579                	addi	a0,a0,-2
   133c8:	1979                	addi	s2,s2,-2
   133ca:	00295703          	lhu	a4,2(s2)
   133ce:	0789                	addi	a5,a5,2
   133d0:	fee79f23          	sh	a4,-2(a5)
   133d4:	fea91ae3          	bne	s2,a0,133c8 <emovi+0x84>
   133d8:	00059c23          	sh	zero,24(a1)
   133dc:	bf75                	j	13398 <emovi+0x54>

00000000000133de <ecmp>:
   133de:	711d                	addi	sp,sp,-96
   133e0:	e4a6                	sd	s1,72(sp)
   133e2:	e0ca                	sd	s2,64(sp)
   133e4:	ec86                	sd	ra,88(sp)
   133e6:	e8a2                	sd	s0,80(sp)
   133e8:	892a                	mv	s2,a0
   133ea:	84ae                	mv	s1,a1
   133ec:	00000097          	auipc	ra,0x0
   133f0:	f0e080e7          	jalr	-242(ra) # 132fa <eisnan>
   133f4:	ed49                	bnez	a0,1348e <ecmp+0xb0>
   133f6:	8526                	mv	a0,s1
   133f8:	00000097          	auipc	ra,0x0
   133fc:	f02080e7          	jalr	-254(ra) # 132fa <eisnan>
   13400:	842a                	mv	s0,a0
   13402:	e551                	bnez	a0,1348e <ecmp+0xb0>
   13404:	858a                	mv	a1,sp
   13406:	854a                	mv	a0,s2
   13408:	00000097          	auipc	ra,0x0
   1340c:	f3c080e7          	jalr	-196(ra) # 13344 <emovi>
   13410:	100c                	addi	a1,sp,32
   13412:	8526                	mv	a0,s1
   13414:	00000097          	auipc	ra,0x0
   13418:	f30080e7          	jalr	-208(ra) # 13344 <emovi>
   1341c:	00015703          	lhu	a4,0(sp)
   13420:	02015783          	lhu	a5,32(sp)
   13424:	02e78c63          	beq	a5,a4,1345c <ecmp+0x7e>
   13428:	4789                	li	a5,2
   1342a:	46e1                	li	a3,24
   1342c:	00f10633          	add	a2,sp,a5
   13430:	00065603          	lhu	a2,0(a2) # ffffffffffff8000 <__global_pointer$+0xfffffffffffda388>
   13434:	e205                	bnez	a2,13454 <ecmp+0x76>
   13436:	1010                	addi	a2,sp,32
   13438:	963e                	add	a2,a2,a5
   1343a:	00065603          	lhu	a2,0(a2)
   1343e:	ea19                	bnez	a2,13454 <ecmp+0x76>
   13440:	0789                	addi	a5,a5,2
   13442:	fed795e3          	bne	a5,a3,1342c <ecmp+0x4e>
   13446:	8522                	mv	a0,s0
   13448:	60e6                	ld	ra,88(sp)
   1344a:	6446                	ld	s0,80(sp)
   1344c:	64a6                	ld	s1,72(sp)
   1344e:	6906                	ld	s2,64(sp)
   13450:	6125                	addi	sp,sp,96
   13452:	8082                	ret
   13454:	4405                	li	s0,1
   13456:	db65                	beqz	a4,13446 <ecmp+0x68>
   13458:	547d                	li	s0,-1
   1345a:	b7f5                	j	13446 <ecmp+0x68>
   1345c:	4605                	li	a2,1
   1345e:	c311                	beqz	a4,13462 <ecmp+0x84>
   13460:	567d                	li	a2,-1
   13462:	4781                	li	a5,0
   13464:	45e1                	li	a1,24
   13466:	00f10733          	add	a4,sp,a5
   1346a:	00075683          	lhu	a3,0(a4)
   1346e:	1018                	addi	a4,sp,32
   13470:	973e                	add	a4,a4,a5
   13472:	00075703          	lhu	a4,0(a4)
   13476:	00e69663          	bne	a3,a4,13482 <ecmp+0xa4>
   1347a:	0789                	addi	a5,a5,2
   1347c:	feb795e3          	bne	a5,a1,13466 <ecmp+0x88>
   13480:	b7d9                	j	13446 <ecmp+0x68>
   13482:	8432                	mv	s0,a2
   13484:	fcd761e3          	bltu	a4,a3,13446 <ecmp+0x68>
   13488:	40c0043b          	negw	s0,a2
   1348c:	bf6d                	j	13446 <ecmp+0x68>
   1348e:	5479                	li	s0,-2
   13490:	bf5d                	j	13446 <ecmp+0x68>

0000000000013492 <eisinf>:
   13492:	01255783          	lhu	a5,18(a0)
   13496:	fff7c793          	not	a5,a5
   1349a:	03179713          	slli	a4,a5,0x31
   1349e:	eb11                	bnez	a4,134b2 <eisinf+0x20>
   134a0:	1141                	addi	sp,sp,-16
   134a2:	e406                	sd	ra,8(sp)
   134a4:	e57ff0ef          	jal	ra,132fa <eisnan>
   134a8:	60a2                	ld	ra,8(sp)
   134aa:	00153513          	seqz	a0,a0
   134ae:	0141                	addi	sp,sp,16
   134b0:	8082                	ret
   134b2:	4501                	li	a0,0
   134b4:	8082                	ret

00000000000134b6 <einfin.isra.2>:
   134b6:	01250793          	addi	a5,a0,18
   134ba:	0509                	addi	a0,a0,2
   134bc:	fe051f23          	sh	zero,-2(a0)
   134c0:	fef51de3          	bne	a0,a5,134ba <einfin.isra.2+0x4>
   134c4:	00055783          	lhu	a5,0(a0)
   134c8:	6721                	lui	a4,0x8
   134ca:	177d                	addi	a4,a4,-1
   134cc:	8fd9                	or	a5,a5,a4
   134ce:	00f51023          	sh	a5,0(a0)
   134d2:	8082                	ret

00000000000134d4 <eshift.part.3>:
   134d4:	7139                	addi	sp,sp,-64
   134d6:	f822                	sd	s0,48(sp)
   134d8:	ec4e                	sd	s3,24(sp)
   134da:	fc06                	sd	ra,56(sp)
   134dc:	f426                	sd	s1,40(sp)
   134de:	f04a                	sd	s2,32(sp)
   134e0:	e852                	sd	s4,16(sp)
   134e2:	e456                	sd	s5,8(sp)
   134e4:	89aa                	mv	s3,a0
   134e6:	842e                	mv	s0,a1
   134e8:	0a05df63          	bgez	a1,135a6 <eshift.part.3+0xd2>
   134ec:	40b00a3b          	negw	s4,a1
   134f0:	8952                	mv	s2,s4
   134f2:	4481                	li	s1,0
   134f4:	4abd                	li	s5,15
   134f6:	034ac763          	blt	s5,s4,13524 <eshift.part.3+0x50>
   134fa:	0049591b          	srliw	s2,s2,0x4
   134fe:	55c1                	li	a1,-16
   13500:	02b905bb          	mulw	a1,s2,a1
   13504:	4a1d                	li	s4,7
   13506:	4085893b          	subw	s2,a1,s0
   1350a:	844a                	mv	s0,s2
   1350c:	032a4463          	blt	s4,s2,13534 <eshift.part.3+0x60>
   13510:	0034559b          	srliw	a1,s0,0x3
   13514:	57e1                	li	a5,-8
   13516:	02f585bb          	mulw	a1,a1,a5
   1351a:	9c2d                	addw	s0,s0,a1
   1351c:	e415                	bnez	s0,13548 <eshift.part.3+0x74>
   1351e:	00903533          	snez	a0,s1
   13522:	a88d                	j	13594 <eshift.part.3+0xc0>
   13524:	0189d783          	lhu	a5,24(s3)
   13528:	854e                	mv	a0,s3
   1352a:	3a41                	addiw	s4,s4,-16
   1352c:	8cdd                	or	s1,s1,a5
   1352e:	ce7ff0ef          	jal	ra,13214 <eshdn6>
   13532:	b7d1                	j	134f6 <eshift.part.3+0x22>
   13534:	0189c783          	lbu	a5,24(s3)
   13538:	854e                	mv	a0,s3
   1353a:	3961                	addiw	s2,s2,-8
   1353c:	8cdd                	or	s1,s1,a5
   1353e:	00000097          	auipc	ra,0x0
   13542:	c74080e7          	jalr	-908(ra) # 131b2 <eshdn8>
   13546:	b7d9                	j	1350c <eshift.part.3+0x38>
   13548:	0189d783          	lhu	a5,24(s3)
   1354c:	854e                	mv	a0,s3
   1354e:	347d                	addiw	s0,s0,-1
   13550:	8b85                	andi	a5,a5,1
   13552:	8cdd                	or	s1,s1,a5
   13554:	00000097          	auipc	ra,0x0
   13558:	be4080e7          	jalr	-1052(ra) # 13138 <eshdn1>
   1355c:	b7c1                	j	1351c <eshift.part.3+0x48>
   1355e:	854e                	mv	a0,s3
   13560:	00000097          	auipc	ra,0x0
   13564:	c98080e7          	jalr	-872(ra) # 131f8 <eshup6>
   13568:	34c1                	addiw	s1,s1,-16
   1356a:	fe994ae3          	blt	s2,s1,1355e <eshift.part.3+0x8a>
   1356e:	0044559b          	srliw	a1,s0,0x4
   13572:	57c1                	li	a5,-16
   13574:	02f585bb          	mulw	a1,a1,a5
   13578:	491d                	li	s2,7
   1357a:	00b404bb          	addw	s1,s0,a1
   1357e:	8426                	mv	s0,s1
   13580:	02994663          	blt	s2,s1,135ac <eshift.part.3+0xd8>
   13584:	0034559b          	srliw	a1,s0,0x3
   13588:	57e1                	li	a5,-8
   1358a:	02f585bb          	mulw	a1,a1,a5
   1358e:	9c2d                	addw	s0,s0,a1
   13590:	e01d                	bnez	s0,135b6 <eshift.part.3+0xe2>
   13592:	4501                	li	a0,0
   13594:	70e2                	ld	ra,56(sp)
   13596:	7442                	ld	s0,48(sp)
   13598:	74a2                	ld	s1,40(sp)
   1359a:	7902                	ld	s2,32(sp)
   1359c:	69e2                	ld	s3,24(sp)
   1359e:	6a42                	ld	s4,16(sp)
   135a0:	6aa2                	ld	s5,8(sp)
   135a2:	6121                	addi	sp,sp,64
   135a4:	8082                	ret
   135a6:	84ae                	mv	s1,a1
   135a8:	493d                	li	s2,15
   135aa:	b7c1                	j	1356a <eshift.part.3+0x96>
   135ac:	854e                	mv	a0,s3
   135ae:	c2bff0ef          	jal	ra,131d8 <eshup8>
   135b2:	34e1                	addiw	s1,s1,-8
   135b4:	b7f1                	j	13580 <eshift.part.3+0xac>
   135b6:	854e                	mv	a0,s3
   135b8:	bb9ff0ef          	jal	ra,13170 <eshup1>
   135bc:	347d                	addiw	s0,s0,-1
   135be:	bfc9                	j	13590 <eshift.part.3+0xbc>

00000000000135c0 <enormlz>:
   135c0:	00455783          	lhu	a5,4(a0)
   135c4:	1101                	addi	sp,sp,-32
   135c6:	e426                	sd	s1,8(sp)
   135c8:	ec06                	sd	ra,24(sp)
   135ca:	e822                	sd	s0,16(sp)
   135cc:	e04a                	sd	s2,0(sp)
   135ce:	84aa                	mv	s1,a0
   135d0:	e3bd                	bnez	a5,13636 <enormlz+0x76>
   135d2:	00651783          	lh	a5,6(a0)
   135d6:	4401                	li	s0,0
   135d8:	0a000913          	li	s2,160
   135dc:	0007df63          	bgez	a5,135fa <enormlz+0x3a>
   135e0:	8522                	mv	a0,s0
   135e2:	60e2                	ld	ra,24(sp)
   135e4:	6442                	ld	s0,16(sp)
   135e6:	64a2                	ld	s1,8(sp)
   135e8:	6902                	ld	s2,0(sp)
   135ea:	6105                	addi	sp,sp,32
   135ec:	8082                	ret
   135ee:	8526                	mv	a0,s1
   135f0:	2441                	addiw	s0,s0,16
   135f2:	c07ff0ef          	jal	ra,131f8 <eshup6>
   135f6:	ff2405e3          	beq	s0,s2,135e0 <enormlz+0x20>
   135fa:	0064d783          	lhu	a5,6(s1)
   135fe:	dbe5                	beqz	a5,135ee <enormlz+0x2e>
   13600:	0064d783          	lhu	a5,6(s1)
   13604:	f007f793          	andi	a5,a5,-256
   13608:	c385                	beqz	a5,13628 <enormlz+0x68>
   1360a:	0a000913          	li	s2,160
   1360e:	00649783          	lh	a5,6(s1)
   13612:	fc07c7e3          	bltz	a5,135e0 <enormlz+0x20>
   13616:	8526                	mv	a0,s1
   13618:	2405                	addiw	s0,s0,1
   1361a:	00000097          	auipc	ra,0x0
   1361e:	b56080e7          	jalr	-1194(ra) # 13170 <eshup1>
   13622:	fe8956e3          	ble	s0,s2,1360e <enormlz+0x4e>
   13626:	bf6d                	j	135e0 <enormlz+0x20>
   13628:	8526                	mv	a0,s1
   1362a:	00000097          	auipc	ra,0x0
   1362e:	bae080e7          	jalr	-1106(ra) # 131d8 <eshup8>
   13632:	2421                	addiw	s0,s0,8
   13634:	b7f1                	j	13600 <enormlz+0x40>
   13636:	f007f793          	andi	a5,a5,-256
   1363a:	4401                	li	s0,0
   1363c:	c781                	beqz	a5,13644 <enormlz+0x84>
   1363e:	b75ff0ef          	jal	ra,131b2 <eshdn8>
   13642:	5461                	li	s0,-8
   13644:	f7000913          	li	s2,-144
   13648:	a039                	j	13656 <enormlz+0x96>
   1364a:	8526                	mv	a0,s1
   1364c:	347d                	addiw	s0,s0,-1
   1364e:	aebff0ef          	jal	ra,13138 <eshdn1>
   13652:	f92447e3          	blt	s0,s2,135e0 <enormlz+0x20>
   13656:	0044d783          	lhu	a5,4(s1)
   1365a:	fbe5                	bnez	a5,1364a <enormlz+0x8a>
   1365c:	b751                	j	135e0 <enormlz+0x20>

000000000001365e <enan.constprop.12>:
   1365e:	01050793          	addi	a5,a0,16
   13662:	0509                	addi	a0,a0,2
   13664:	fe051f23          	sh	zero,-2(a0)
   13668:	fef51de3          	bne	a0,a5,13662 <enan.constprop.12+0x4>
   1366c:	77f1                	lui	a5,0xffffc
   1366e:	00f51023          	sh	a5,0(a0)
   13672:	67a1                	lui	a5,0x8
   13674:	17fd                	addi	a5,a5,-1
   13676:	00f51123          	sh	a5,2(a0)
   1367a:	8082                	ret

000000000001367c <emovo.isra.6>:
   1367c:	872a                	mv	a4,a0
   1367e:	00075683          	lhu	a3,0(a4) # 8000 <_start-0x80b0>
   13682:	852e                	mv	a0,a1
   13684:	00275783          	lhu	a5,2(a4)
   13688:	c299                	beqz	a3,1368e <emovo.isra.6+0x12>
   1368a:	76e1                	lui	a3,0xffff8
   1368c:	8fd5                	or	a5,a5,a3
   1368e:	00f51923          	sh	a5,18(a0)
   13692:	00275603          	lhu	a2,2(a4)
   13696:	66a1                	lui	a3,0x8
   13698:	16fd                	addi	a3,a3,-1
   1369a:	00670793          	addi	a5,a4,6
   1369e:	00d61b63          	bne	a2,a3,136b4 <emovo.isra.6+0x38>
   136a2:	0769                	addi	a4,a4,26
   136a4:	0007d683          	lhu	a3,0(a5) # 8000 <_start-0x80b0>
   136a8:	e28d                	bnez	a3,136ca <emovo.isra.6+0x4e>
   136aa:	0789                	addi	a5,a5,2
   136ac:	fee79ce3          	bne	a5,a4,136a4 <emovo.isra.6+0x28>
   136b0:	e07ff06f          	j	134b6 <einfin.isra.2>
   136b4:	0541                	addi	a0,a0,16
   136b6:	0761                	addi	a4,a4,24
   136b8:	0789                	addi	a5,a5,2
   136ba:	ffe7d683          	lhu	a3,-2(a5)
   136be:	1579                	addi	a0,a0,-2
   136c0:	00d51123          	sh	a3,2(a0)
   136c4:	fee79ae3          	bne	a5,a4,136b8 <emovo.isra.6+0x3c>
   136c8:	8082                	ret
   136ca:	00000317          	auipc	t1,0x0
   136ce:	f9430067          	jr	-108(t1) # 1365e <enan.constprop.12>

00000000000136d2 <e113toe.isra.8>:
   136d2:	7139                	addi	sp,sp,-64
   136d4:	f426                	sd	s1,40(sp)
   136d6:	84aa                	mv	s1,a0
   136d8:	850a                	mv	a0,sp
   136da:	f822                	sd	s0,48(sp)
   136dc:	fc06                	sd	ra,56(sp)
   136de:	842e                	mv	s0,a1
   136e0:	a03ff0ef          	jal	ra,130e2 <ecleaz>
   136e4:	00e4d703          	lhu	a4,14(s1)
   136e8:	0107179b          	slliw	a5,a4,0x10
   136ec:	4107d79b          	sraiw	a5,a5,0x10
   136f0:	0207c763          	bltz	a5,1371e <e113toe.isra.8+0x4c>
   136f4:	00011023          	sh	zero,0(sp)
   136f8:	66a1                	lui	a3,0x8
   136fa:	16fd                	addi	a3,a3,-1
   136fc:	8f75                	and	a4,a4,a3
   136fe:	00e48793          	addi	a5,s1,14
   13702:	04d71c63          	bne	a4,a3,1375a <e113toe.isra.8+0x88>
   13706:	8726                	mv	a4,s1
   13708:	00075683          	lhu	a3,0(a4)
   1370c:	ce89                	beqz	a3,13726 <e113toe.isra.8+0x54>
   1370e:	8522                	mv	a0,s0
   13710:	f4fff0ef          	jal	ra,1365e <enan.constprop.12>
   13714:	70e2                	ld	ra,56(sp)
   13716:	7442                	ld	s0,48(sp)
   13718:	74a2                	ld	s1,40(sp)
   1371a:	6121                	addi	sp,sp,64
   1371c:	8082                	ret
   1371e:	57fd                	li	a5,-1
   13720:	00f11023          	sh	a5,0(sp)
   13724:	bfd1                	j	136f8 <e113toe.isra.8+0x26>
   13726:	0709                	addi	a4,a4,2
   13728:	fee790e3          	bne	a5,a4,13708 <e113toe.isra.8+0x36>
   1372c:	8522                	mv	a0,s0
   1372e:	98fff0ef          	jal	ra,130bc <eclear>
   13732:	8522                	mv	a0,s0
   13734:	00000097          	auipc	ra,0x0
   13738:	d82080e7          	jalr	-638(ra) # 134b6 <einfin.isra.2>
   1373c:	00e49783          	lh	a5,14(s1)
   13740:	fc07dae3          	bgez	a5,13714 <e113toe.isra.8+0x42>
   13744:	8522                	mv	a0,s0
   13746:	bb5ff0ef          	jal	ra,132fa <eisnan>
   1374a:	f569                	bnez	a0,13714 <e113toe.isra.8+0x42>
   1374c:	01245783          	lhu	a5,18(s0)
   13750:	7761                	lui	a4,0xffff8
   13752:	8fb9                	xor	a5,a5,a4
   13754:	00f41923          	sh	a5,18(s0)
   13758:	bf75                	j	13714 <e113toe.isra.8+0x42>
   1375a:	00e11123          	sh	a4,2(sp)
   1375e:	868a                	mv	a3,sp
   13760:	17f9                	addi	a5,a5,-2
   13762:	0007d603          	lhu	a2,0(a5)
   13766:	0689                	addi	a3,a3,2
   13768:	00c69223          	sh	a2,4(a3) # 8004 <_start-0x80ac>
   1376c:	fef49ae3          	bne	s1,a5,13760 <e113toe.isra.8+0x8e>
   13770:	eb11                	bnez	a4,13784 <e113toe.isra.8+0xb2>
   13772:	00011223          	sh	zero,4(sp)
   13776:	85a2                	mv	a1,s0
   13778:	850a                	mv	a0,sp
   1377a:	00000097          	auipc	ra,0x0
   1377e:	f02080e7          	jalr	-254(ra) # 1367c <emovo.isra.6>
   13782:	bf49                	j	13714 <e113toe.isra.8+0x42>
   13784:	4785                	li	a5,1
   13786:	55fd                	li	a1,-1
   13788:	850a                	mv	a0,sp
   1378a:	00f11223          	sh	a5,4(sp)
   1378e:	d47ff0ef          	jal	ra,134d4 <eshift.part.3>
   13792:	b7d5                	j	13776 <e113toe.isra.8+0xa4>

0000000000013794 <emdnorm>:
   13794:	7139                	addi	sp,sp,-64
   13796:	f822                	sd	s0,48(sp)
   13798:	f426                	sd	s1,40(sp)
   1379a:	f04a                	sd	s2,32(sp)
   1379c:	ec4e                	sd	s3,24(sp)
   1379e:	e852                	sd	s4,16(sp)
   137a0:	e456                	sd	s5,8(sp)
   137a2:	8936                	mv	s2,a3
   137a4:	843e                	mv	s0,a5
   137a6:	fc06                	sd	ra,56(sp)
   137a8:	84aa                	mv	s1,a0
   137aa:	89ae                	mv	s3,a1
   137ac:	8a32                	mv	s4,a2
   137ae:	8aba                	mv	s5,a4
   137b0:	e11ff0ef          	jal	ra,135c0 <enormlz>
   137b4:	09000793          	li	a5,144
   137b8:	40a90933          	sub	s2,s2,a0
   137bc:	02a7d763          	ble	a0,a5,137ea <emdnorm+0x56>
   137c0:	67a1                	lui	a5,0x8
   137c2:	17f9                	addi	a5,a5,-2
   137c4:	2327cc63          	blt	a5,s2,139fc <emdnorm+0x268>
   137c8:	00248793          	addi	a5,s1,2
   137cc:	04e9                	addi	s1,s1,26
   137ce:	0789                	addi	a5,a5,2
   137d0:	fe079f23          	sh	zero,-2(a5) # 7ffe <_start-0x80b2>
   137d4:	fe979de3          	bne	a5,s1,137ce <emdnorm+0x3a>
   137d8:	70e2                	ld	ra,56(sp)
   137da:	7442                	ld	s0,48(sp)
   137dc:	74a2                	ld	s1,40(sp)
   137de:	7902                	ld	s2,32(sp)
   137e0:	69e2                	ld	s3,24(sp)
   137e2:	6a42                	ld	s4,16(sp)
   137e4:	6aa2                	ld	s5,8(sp)
   137e6:	6121                	addi	sp,sp,64
   137e8:	8082                	ret
   137ea:	00095f63          	bgez	s2,13808 <emdnorm+0x74>
   137ee:	f7000793          	li	a5,-144
   137f2:	0ef94e63          	blt	s2,a5,138ee <emdnorm+0x15a>
   137f6:	0009059b          	sext.w	a1,s2
   137fa:	8526                	mv	a0,s1
   137fc:	00000097          	auipc	ra,0x0
   13800:	cd8080e7          	jalr	-808(ra) # 134d4 <eshift.part.3>
   13804:	0e051e63          	bnez	a0,13900 <emdnorm+0x16c>
   13808:	1a0a8e63          	beqz	s5,139c4 <emdnorm+0x230>
   1380c:	4058                	lw	a4,4(s0)
   1380e:	401c                	lw	a5,0(s0)
   13810:	04f70a63          	beq	a4,a5,13864 <emdnorm+0xd0>
   13814:	01a40513          	addi	a0,s0,26
   13818:	00000097          	auipc	ra,0x0
   1381c:	8ca080e7          	jalr	-1846(ra) # 130e2 <ecleaz>
   13820:	405c                	lw	a5,4(s0)
   13822:	03800713          	li	a4,56
   13826:	10e78d63          	beq	a5,a4,13940 <emdnorm+0x1ac>
   1382a:	0cf74d63          	blt	a4,a5,13904 <emdnorm+0x170>
   1382e:	4761                	li	a4,24
   13830:	12e78e63          	beq	a5,a4,1396c <emdnorm+0x1d8>
   13834:	03500713          	li	a4,53
   13838:	12e78163          	beq	a5,a4,1395a <emdnorm+0x1c6>
   1383c:	80010737          	lui	a4,0x80010
   13840:	377d                	addiw	a4,a4,-1
   13842:	c858                	sw	a4,20(s0)
   13844:	4705                	li	a4,1
   13846:	00e41c23          	sh	a4,24(s0)
   1384a:	472d                	li	a4,11
   1384c:	1702                	slli	a4,a4,0x20
   1384e:	0731                	addi	a4,a4,12
   13850:	e418                	sd	a4,8(s0)
   13852:	4458                	lw	a4,12(s0)
   13854:	01845683          	lhu	a3,24(s0)
   13858:	0721                	addi	a4,a4,8
   1385a:	0706                	slli	a4,a4,0x1
   1385c:	9722                	add	a4,a4,s0
   1385e:	00d71523          	sh	a3,10(a4) # ffffffff8001000a <__global_pointer$+0xffffffff7fff2392>
   13862:	c01c                	sw	a5,0(s0)
   13864:	01204f63          	bgtz	s2,13882 <emdnorm+0xee>
   13868:	4058                	lw	a4,4(s0)
   1386a:	09000793          	li	a5,144
   1386e:	00f70a63          	beq	a4,a5,13882 <emdnorm+0xee>
   13872:	0184d783          	lhu	a5,24(s1)
   13876:	8526                	mv	a0,s1
   13878:	8b85                	andi	a5,a5,1
   1387a:	00f9e9b3          	or	s3,s3,a5
   1387e:	8bbff0ef          	jal	ra,13138 <eshdn1>
   13882:	4414                	lw	a3,8(s0)
   13884:	01445583          	lhu	a1,20(s0)
   13888:	4048                	lw	a0,4(s0)
   1388a:	00169793          	slli	a5,a3,0x1
   1388e:	00f48633          	add	a2,s1,a5
   13892:	00065703          	lhu	a4,0(a2)
   13896:	8f6d                	and	a4,a4,a1
   13898:	08f00593          	li	a1,143
   1389c:	00a5c863          	blt	a1,a0,138ac <emdnorm+0x118>
   138a0:	0789                	addi	a5,a5,2
   138a2:	2685                	addiw	a3,a3,1
   138a4:	97a6                	add	a5,a5,s1
   138a6:	45b1                	li	a1,12
   138a8:	0cd5df63          	ble	a3,a1,13986 <emdnorm+0x1f2>
   138ac:	01445783          	lhu	a5,20(s0)
   138b0:	00065683          	lhu	a3,0(a2)
   138b4:	fff7c793          	not	a5,a5
   138b8:	8ff5                	and	a5,a5,a3
   138ba:	00f61023          	sh	a5,0(a2)
   138be:	01645783          	lhu	a5,22(s0)
   138c2:	00e7f6b3          	and	a3,a5,a4
   138c6:	cee1                	beqz	a3,1399e <emdnorm+0x20a>
   138c8:	00e79d63          	bne	a5,a4,138e2 <emdnorm+0x14e>
   138cc:	0c099763          	bnez	s3,1399a <emdnorm+0x206>
   138d0:	445c                	lw	a5,12(s0)
   138d2:	01845703          	lhu	a4,24(s0)
   138d6:	0786                	slli	a5,a5,0x1
   138d8:	97a6                	add	a5,a5,s1
   138da:	0007d783          	lhu	a5,0(a5)
   138de:	8ff9                	and	a5,a5,a4
   138e0:	cfdd                	beqz	a5,1399e <emdnorm+0x20a>
   138e2:	85a6                	mv	a1,s1
   138e4:	01a40513          	addi	a0,s0,26
   138e8:	94fff0ef          	jal	ra,13236 <eaddm>
   138ec:	a84d                	j	1399e <emdnorm+0x20a>
   138ee:	00248793          	addi	a5,s1,2
   138f2:	04e9                	addi	s1,s1,26
   138f4:	0789                	addi	a5,a5,2
   138f6:	fe079f23          	sh	zero,-2(a5)
   138fa:	fe979de3          	bne	a5,s1,138f4 <emdnorm+0x160>
   138fe:	bde9                	j	137d8 <emdnorm+0x44>
   13900:	4985                	li	s3,1
   13902:	b719                	j	13808 <emdnorm+0x74>
   13904:	04000713          	li	a4,64
   13908:	02e78163          	beq	a5,a4,1392a <emdnorm+0x196>
   1390c:	07100713          	li	a4,113
   13910:	f2e796e3          	bne	a5,a4,1383c <emdnorm+0xa8>
   13914:	40008737          	lui	a4,0x40008
   13918:	377d                	addiw	a4,a4,-1
   1391a:	c858                	sw	a4,20(s0)
   1391c:	7761                	lui	a4,0xffff8
   1391e:	00e41c23          	sh	a4,24(s0)
   13922:	4729                	li	a4,10
   13924:	1702                	slli	a4,a4,0x20
   13926:	0729                	addi	a4,a4,10
   13928:	b725                	j	13850 <emdnorm+0xbc>
   1392a:	80010737          	lui	a4,0x80010
   1392e:	377d                	addiw	a4,a4,-1
   13930:	c858                	sw	a4,20(s0)
   13932:	4705                	li	a4,1
   13934:	00e41c23          	sh	a4,24(s0)
   13938:	470d                	li	a4,3
   1393a:	1706                	slli	a4,a4,0x21
   1393c:	071d                	addi	a4,a4,7
   1393e:	bf09                	j	13850 <emdnorm+0xbc>
   13940:	00800737          	lui	a4,0x800
   13944:	0ff7071b          	addiw	a4,a4,255
   13948:	c858                	sw	a4,20(s0)
   1394a:	10000713          	li	a4,256
   1394e:	00e41c23          	sh	a4,24(s0)
   13952:	4719                	li	a4,6
   13954:	1702                	slli	a4,a4,0x20
   13956:	0719                	addi	a4,a4,6
   13958:	bde5                	j	13850 <emdnorm+0xbc>
   1395a:	04000737          	lui	a4,0x4000
   1395e:	7ff7071b          	addiw	a4,a4,2047
   13962:	c858                	sw	a4,20(s0)
   13964:	6705                	lui	a4,0x1
   13966:	8007071b          	addiw	a4,a4,-2048
   1396a:	b7d5                	j	1394e <emdnorm+0x1ba>
   1396c:	00800737          	lui	a4,0x800
   13970:	0ff7071b          	addiw	a4,a4,255
   13974:	c858                	sw	a4,20(s0)
   13976:	10000713          	li	a4,256
   1397a:	00e41c23          	sh	a4,24(s0)
   1397e:	4711                	li	a4,4
   13980:	1702                	slli	a4,a4,0x20
   13982:	0711                	addi	a4,a4,4
   13984:	b5f1                	j	13850 <emdnorm+0xbc>
   13986:	0007d503          	lhu	a0,0(a5)
   1398a:	c119                	beqz	a0,13990 <emdnorm+0x1fc>
   1398c:	00176713          	ori	a4,a4,1
   13990:	00079023          	sh	zero,0(a5)
   13994:	2685                	addiw	a3,a3,1
   13996:	0789                	addi	a5,a5,2
   13998:	bf01                	j	138a8 <emdnorm+0x114>
   1399a:	f40a04e3          	beqz	s4,138e2 <emdnorm+0x14e>
   1399e:	01204c63          	bgtz	s2,139b6 <emdnorm+0x222>
   139a2:	4058                	lw	a4,4(s0)
   139a4:	09000793          	li	a5,144
   139a8:	00f70763          	beq	a4,a5,139b6 <emdnorm+0x222>
   139ac:	8526                	mv	a0,s1
   139ae:	fffff097          	auipc	ra,0xfffff
   139b2:	7c2080e7          	jalr	1986(ra) # 13170 <eshup1>
   139b6:	0044d783          	lhu	a5,4(s1)
   139ba:	c789                	beqz	a5,139c4 <emdnorm+0x230>
   139bc:	8526                	mv	a0,s1
   139be:	f7aff0ef          	jal	ra,13138 <eshdn1>
   139c2:	0905                	addi	s2,s2,1
   139c4:	67a1                	lui	a5,0x8
   139c6:	00049c23          	sh	zero,24(s1)
   139ca:	17f9                	addi	a5,a5,-2
   139cc:	0327d063          	ble	s2,a5,139ec <emdnorm+0x258>
   139d0:	77e1                	lui	a5,0xffff8
   139d2:	fff7c793          	not	a5,a5
   139d6:	00f49123          	sh	a5,2(s1)
   139da:	00448793          	addi	a5,s1,4
   139de:	04e1                	addi	s1,s1,24
   139e0:	00079023          	sh	zero,0(a5) # ffffffffffff8000 <__global_pointer$+0xfffffffffffda388>
   139e4:	0789                	addi	a5,a5,2
   139e6:	fef49de3          	bne	s1,a5,139e0 <emdnorm+0x24c>
   139ea:	b3fd                	j	137d8 <emdnorm+0x44>
   139ec:	00095563          	bgez	s2,139f6 <emdnorm+0x262>
   139f0:	00049123          	sh	zero,2(s1)
   139f4:	b3d5                	j	137d8 <emdnorm+0x44>
   139f6:	01249123          	sh	s2,2(s1)
   139fa:	bbf9                	j	137d8 <emdnorm+0x44>
   139fc:	e00a98e3          	bnez	s5,1380c <emdnorm+0x78>
   13a00:	00049c23          	sh	zero,24(s1)
   13a04:	b7f1                	j	139d0 <emdnorm+0x23c>

0000000000013a06 <eiremain>:
   13a06:	7139                	addi	sp,sp,-64
   13a08:	e852                	sd	s4,16(sp)
   13a0a:	00255a03          	lhu	s4,2(a0)
   13a0e:	f822                	sd	s0,48(sp)
   13a10:	842e                	mv	s0,a1
   13a12:	fc06                	sd	ra,56(sp)
   13a14:	f426                	sd	s1,40(sp)
   13a16:	f04a                	sd	s2,32(sp)
   13a18:	e456                	sd	s5,8(sp)
   13a1a:	e05a                	sd	s6,0(sp)
   13a1c:	8932                	mv	s2,a2
   13a1e:	03460b13          	addi	s6,a2,52
   13a22:	ec4e                	sd	s3,24(sp)
   13a24:	8aaa                	mv	s5,a0
   13a26:	00000097          	auipc	ra,0x0
   13a2a:	b9a080e7          	jalr	-1126(ra) # 135c0 <enormlz>
   13a2e:	00245483          	lhu	s1,2(s0)
   13a32:	40aa0a33          	sub	s4,s4,a0
   13a36:	8522                	mv	a0,s0
   13a38:	00000097          	auipc	ra,0x0
   13a3c:	b88080e7          	jalr	-1144(ra) # 135c0 <enormlz>
   13a40:	8c89                	sub	s1,s1,a0
   13a42:	855a                	mv	a0,s6
   13a44:	e9eff0ef          	jal	ra,130e2 <ecleaz>
   13a48:	0344d563          	ble	s4,s1,13a72 <eiremain+0x6c>
   13a4c:	8522                	mv	a0,s0
   13a4e:	7442                	ld	s0,48(sp)
   13a50:	70e2                	ld	ra,56(sp)
   13a52:	69e2                	ld	s3,24(sp)
   13a54:	6a42                	ld	s4,16(sp)
   13a56:	6aa2                	ld	s5,8(sp)
   13a58:	6b02                	ld	s6,0(sp)
   13a5a:	87ca                	mv	a5,s2
   13a5c:	86a6                	mv	a3,s1
   13a5e:	7902                	ld	s2,32(sp)
   13a60:	74a2                	ld	s1,40(sp)
   13a62:	4701                	li	a4,0
   13a64:	4601                	li	a2,0
   13a66:	4581                	li	a1,0
   13a68:	6121                	addi	sp,sp,64
   13a6a:	00000317          	auipc	t1,0x0
   13a6e:	d2a30067          	jr	-726(t1) # 13794 <emdnorm>
   13a72:	85a2                	mv	a1,s0
   13a74:	8556                	mv	a0,s5
   13a76:	e98ff0ef          	jal	ra,1310e <ecmpm>
   13a7a:	4981                	li	s3,0
   13a7c:	00a04763          	bgtz	a0,13a8a <eiremain+0x84>
   13a80:	85a2                	mv	a1,s0
   13a82:	8556                	mv	a0,s5
   13a84:	fdaff0ef          	jal	ra,1325e <esubm>
   13a88:	4985                	li	s3,1
   13a8a:	855a                	mv	a0,s6
   13a8c:	ee4ff0ef          	jal	ra,13170 <eshup1>
   13a90:	04c95783          	lhu	a5,76(s2)
   13a94:	8522                	mv	a0,s0
   13a96:	14fd                	addi	s1,s1,-1
   13a98:	00f9e9b3          	or	s3,s3,a5
   13a9c:	05391623          	sh	s3,76(s2)
   13aa0:	ed0ff0ef          	jal	ra,13170 <eshup1>
   13aa4:	b755                	j	13a48 <eiremain+0x42>

0000000000013aa6 <emul>:
   13aa6:	7131                	addi	sp,sp,-192
   13aa8:	f922                	sd	s0,176(sp)
   13aaa:	f526                	sd	s1,168(sp)
   13aac:	f14a                	sd	s2,160(sp)
   13aae:	ed4e                	sd	s3,152(sp)
   13ab0:	fd06                	sd	ra,184(sp)
   13ab2:	e952                	sd	s4,144(sp)
   13ab4:	e556                	sd	s5,136(sp)
   13ab6:	e15a                	sd	s6,128(sp)
   13ab8:	fcde                	sd	s7,120(sp)
   13aba:	f8e2                	sd	s8,112(sp)
   13abc:	f4e6                	sd	s9,104(sp)
   13abe:	84aa                	mv	s1,a0
   13ac0:	842e                	mv	s0,a1
   13ac2:	8932                	mv	s2,a2
   13ac4:	89b6                	mv	s3,a3
   13ac6:	00000097          	auipc	ra,0x0
   13aca:	834080e7          	jalr	-1996(ra) # 132fa <eisnan>
   13ace:	c115                	beqz	a0,13af2 <emul+0x4c>
   13ad0:	85ca                	mv	a1,s2
   13ad2:	8526                	mv	a0,s1
   13ad4:	df8ff0ef          	jal	ra,130cc <emov>
   13ad8:	70ea                	ld	ra,184(sp)
   13ada:	744a                	ld	s0,176(sp)
   13adc:	74aa                	ld	s1,168(sp)
   13ade:	790a                	ld	s2,160(sp)
   13ae0:	69ea                	ld	s3,152(sp)
   13ae2:	6a4a                	ld	s4,144(sp)
   13ae4:	6aaa                	ld	s5,136(sp)
   13ae6:	6b0a                	ld	s6,128(sp)
   13ae8:	7be6                	ld	s7,120(sp)
   13aea:	7c46                	ld	s8,112(sp)
   13aec:	7ca6                	ld	s9,104(sp)
   13aee:	6129                	addi	sp,sp,192
   13af0:	8082                	ret
